Archive member included to satisfy reference by file (symbol)

C:\gnat\2017\arm-eabi\lib\gnat\ravenscar-full-stm32f4\adalib\\libgnat.a(start-rom.o)
                              (_start_rom)
C:\gnat\2017\arm-eabi\lib\gnat\ravenscar-full-stm32f4\adalib\\libgnat.a(start-common.o)
                              C:\gnat\2017\arm-eabi\lib\gnat\ravenscar-full-stm32f4\adalib\\libgnat.a(start-rom.o) (_stm32_start_common)
C:\gnat\2017\arm-eabi\lib\gnat\ravenscar-full-stm32f4\adalib\\libgnat.a(setup_pll.o)
                              C:\gnat\2017\arm-eabi\lib\gnat\ravenscar-full-stm32f4\adalib\\libgnat.a(start-rom.o) (_ada_setup_pll)
C:\gnat\2017\arm-eabi\lib\gnat\ravenscar-full-stm32f4\adalib\\libgnat.a(s-macres.o)
                              C:\gnat\2017\arm-eabi\lib\gnat\ravenscar-full-stm32f4\adalib\\libgnat.a(start-rom.o) (_exit)
C:\gnat\2017\arm-eabi\lib\gnat\ravenscar-full-stm32f4\adalib\\libgnat.a(s-taskin.o)
                              b__project_main.o (__gl_main_cpu)
C:\gnat\2017\arm-eabi\lib\gnat\ravenscar-full-stm32f4\adalib\\libgnat.a(s-tasdeb.o)
                              C:\gnat\2017\arm-eabi\lib\gnat\ravenscar-full-stm32f4\adalib\\libgnat.a(s-taskin.o) (system__tasking__debug__last_task)
C:\gnat\2017\arm-eabi\lib\gnat\ravenscar-full-stm32f4\adalib\\libgnat.a(s-taprop.o)
                              C:\gnat\2017\arm-eabi\lib\gnat\ravenscar-full-stm32f4\adalib\\libgnat.a(s-taskin.o) (system__task_primitives__operations(int, double, long,...))
C:\gnat\2017\arm-eabi\lib\gnat\ravenscar-full-stm32f4\adalib\\libgnat.a(s-parame.o)
                              C:\gnat\2017\arm-eabi\lib\gnat\ravenscar-full-stm32f4\adalib\\libgnat.a(s-taskin.o) (system__parameters__adjust_storage_size)
C:\gnat\2017\arm-eabi\lib\gnat\ravenscar-full-stm32f4\adalib\\libgnat.a(s-bcprmu.o)
                              b__project_main.o (__gnat_start_slave_cpus)
C:\gnat\2017\arm-eabi\lib\gnat\ravenscar-full-stm32f4\adalib\\libgnat.a(s-bbtiev.o)
                              C:\gnat\2017\arm-eabi\lib\gnat\ravenscar-full-stm32f4\adalib\\libgnat.a(s-bcprmu.o) (system__bb__timing_events__execute_expired_timing_events)
C:\gnat\2017\arm-eabi\lib\gnat\ravenscar-full-stm32f4\adalib\\libgnat.a(s-bbthre.o)
                              C:\gnat\2017\arm-eabi\lib\gnat\ravenscar-full-stm32f4\adalib\\libgnat.a(s-taskin.o) (system__bb__threads__initialize)
C:\gnat\2017\arm-eabi\lib\gnat\ravenscar-full-stm32f4\adalib\\libgnat.a(s-bbthqu.o)
                              C:\gnat\2017\arm-eabi\lib\gnat\ravenscar-full-stm32f4\adalib\\libgnat.a(s-taskin.o) (system__bb__threads__queues__change_priority)
C:\gnat\2017\arm-eabi\lib\gnat\ravenscar-full-stm32f4\adalib\\libgnat.a(s-bbprot.o)
                              C:\gnat\2017\arm-eabi\lib\gnat\ravenscar-full-stm32f4\adalib\\libgnat.a(s-taskin.o) (system__bb__protection__leave_kernel)
C:\gnat\2017\arm-eabi\lib\gnat\ravenscar-full-stm32f4\adalib\\libgnat.a(s-stalib.o)
                              b__project_main.o (system__standard_library__adafinal)
C:\gnat\2017\arm-eabi\lib\gnat\ravenscar-full-stm32f4\adalib\\libgnat.a(s-soflin.o)
                              C:\gnat\2017\arm-eabi\lib\gnat\ravenscar-full-stm32f4\adalib\\libgnat.a(s-stalib.o) (system__soft_links__abort_undefer_raven)
C:\gnat\2017\arm-eabi\lib\gnat\ravenscar-full-stm32f4\adalib\\libgnat.a(s-init.o)
                              b__project_main.o (__gnat_finalize)
C:\gnat\2017\arm-eabi\lib\gnat\ravenscar-full-stm32f4\adalib\\libgnat.a(s-exctab.o)
                              b__project_main.o (system__exception_table___elabb)
C:\gnat\2017\arm-eabi\lib\gnat\ravenscar-full-stm32f4\adalib\\libgnat.a(a-tags.o)
                              C:\gnat\2017\arm-eabi\lib\gnat\ravenscar-full-stm32f4\adalib\\libgnat.a(s-bbtiev.o) (ada__tags__register_tag)
C:\gnat\2017\arm-eabi\lib\gnat\ravenscar-full-stm32f4\adalib\\libgnat.a(a-except.o)
                              C:\gnat\2017\arm-eabi\lib\gnat\ravenscar-full-stm32f4\adalib\\libgnat.a(s-taskin.o) (__gnat_raise_exception)
C:\gnat\2017\arm-eabi\lib\gnat\ravenscar-full-stm32f4\adalib\\libgnat.a(a-elchha.o)
                              C:\gnat\2017\arm-eabi\lib\gnat\ravenscar-full-stm32f4\adalib\\libgnat.a(a-except.o) (__gnat_last_chance_handler)
C:\gnat\2017\arm-eabi\lib\gnat\ravenscar-full-stm32f4\adalib\\libgnat.a(s-memset.o)
                              C:\gnat\2017\arm-eabi\lib\gnat\ravenscar-full-stm32f4\adalib\\libgnat.a(s-bbthre.o) (memset)
C:\gnat\2017\arm-eabi\lib\gnat\ravenscar-full-stm32f4\adalib\\libgnat.a(s-memmov.o)
                              C:\gnat\2017\arm-eabi\lib\gnat\ravenscar-full-stm32f4\adalib\\libgnat.a(a-tags.o) (memmove)
C:\gnat\2017\arm-eabi\lib\gnat\ravenscar-full-stm32f4\adalib\\libgnat.a(s-memcop.o)
                              C:\gnat\2017\arm-eabi\lib\gnat\ravenscar-full-stm32f4\adalib\\libgnat.a(s-exctab.o) (memcpy)
C:\gnat\2017\arm-eabi\lib\gnat\ravenscar-full-stm32f4\adalib\\libgnat.a(s-memcom.o)
                              C:\gnat\2017\arm-eabi\lib\gnat\ravenscar-full-stm32f4\adalib\\libgnat.a(s-soflin.o) (memcmp)
C:\gnat\2017\arm-eabi\lib\gnat\ravenscar-full-stm32f4\adalib\\libgnat.a(s-secsta.o)
                              C:\gnat\2017\arm-eabi\lib\gnat\ravenscar-full-stm32f4\adalib\\libgnat.a(a-tags.o) (system__secondary_stack__ss_allocate)
C:\gnat\2017\arm-eabi\lib\gnat\ravenscar-full-stm32f4\adalib\\libgnat.a(s-imgint.o)
                              C:\gnat\2017\arm-eabi\lib\gnat\ravenscar-full-stm32f4\adalib\\libgnat.a(a-except.o) (system__img_int__image_integer)
C:\gnat\2017\arm-eabi\lib\gnat\ravenscar-full-stm32f4\adalib\\libgnat.a(handler.o)
                              C:\gnat\2017\arm-eabi\lib\gnat\ravenscar-full-stm32f4\adalib\\libgnat.a(s-bbthre.o) (__vectors)
C:\gnat\2017\arm-eabi\lib\gnat\ravenscar-full-stm32f4\adalib\\libgnat.a(breakpoint_handler.o)
                              C:\gnat\2017\arm-eabi\lib\gnat\ravenscar-full-stm32f4\adalib\\libgnat.a(handler.o) (__gnat_bkpt_trap)
C:\gnat\2017\arm-eabi\lib\gnat\ravenscar-full-stm32f4\adalib\\libgnat.a(raise-gcc.o)
                              C:\gnat\2017\arm-eabi\lib\gnat\ravenscar-full-stm32f4\adalib\\libgnat.a(a-except.o) (__gnat_personality_v0)
C:\gnat\2017\arm-eabi\lib\gnat\ravenscar-full-stm32f4\adalib\\libgnat.a(adaint-xi.o)
                              C:\gnat\2017\arm-eabi\lib\gnat\ravenscar-full-stm32f4\adalib\\libgnat.a(a-except.o) (__gnat_get_executable_load_address)
C:\gnat\2017\arm-eabi\lib\gnat\ravenscar-full-stm32f4\adalib\\libgnat.a(s-bbinte.o)
                              C:\gnat\2017\arm-eabi\lib\gnat\ravenscar-full-stm32f4\adalib\\libgnat.a(s-taprop.o) (system__bb__interrupts__current_interrupt)
C:\gnat\2017\arm-eabi\lib\gnat\ravenscar-full-stm32f4\adalib\\libgnat.a(s-bbcppr.o)
                              C:\gnat\2017\arm-eabi\lib\gnat\ravenscar-full-stm32f4\adalib\\libgnat.a(s-init.o) (system__bb__cpu_primitives__gnat_error_handler)
C:\gnat\2017\arm-eabi\lib\gnat\ravenscar-full-stm32f4\adalib\\libgnat.a(s-bbbosu.o)
                              C:\gnat\2017\arm-eabi\lib\gnat\ravenscar-full-stm32f4\adalib\\libgnat.a(s-taprop.o) (system__bb__board_support__time__read_clock)
C:\gnat\2017\arm-eabi\lib\gnat\ravenscar-full-stm32f4\adalib\\libgnat.a(s-bbmcpa.o)
                              C:\gnat\2017\arm-eabi\lib\gnat\ravenscar-full-stm32f4\adalib\\libgnat.a(setup_pll.o) (system__bb__mcu_parameters__pwr_initialize)
C:\gnat\2017\arm-eabi\lib\gnat\ravenscar-full-stm32f4\adalib\\libgnat.a(s-bbtime.o)
                              C:\gnat\2017\arm-eabi\lib\gnat\ravenscar-full-stm32f4\adalib\\libgnat.a(s-bbtiev.o) (system__bb__time__get_next_timeout)
C:\gnat\2017\arm-eabi\lib\gnat\ravenscar-full-stm32f4\adalib\\libgnat.a(s-traceb.o)
                              C:\gnat\2017\arm-eabi\lib\gnat\ravenscar-full-stm32f4\adalib\\libgnat.a(a-except.o) (system__traceback__call_chain)
C:\gnat\2017\arm-eabi\lib\gnat\ravenscar-full-stm32f4\adalib\\libgnat.a(s-excmac.o)
                              C:\gnat\2017\arm-eabi\lib\gnat\ravenscar-full-stm32f4\adalib\\libgnat.a(a-except.o) (system__exceptions__machine__new_occurrence)
C:\gnat\2017\arm-eabi\lib\gnat\ravenscar-full-stm32f4\adalib\\libgnat.a(s-wchstw.o)
                              C:\gnat\2017\arm-eabi\lib\gnat\ravenscar-full-stm32f4\adalib\\libgnat.a(a-tags.o) (system__wch_stw__string_to_wide_string)
C:\gnat\2017\arm-eabi\lib\gnat\ravenscar-full-stm32f4\adalib\\libgnat.a(s-wchjis.o)
                              C:\gnat\2017\arm-eabi\lib\gnat\ravenscar-full-stm32f4\adalib\\libgnat.a(s-wchstw.o) (system__wch_jis__euc_to_jis)
C:\gnat\2017\arm-eabi\lib\gnat\ravenscar-full-stm32f4\adalib\\libgnat.a(s-wchcon.o)
                              C:\gnat\2017\arm-eabi\lib\gnat\ravenscar-full-stm32f4\adalib\\libgnat.a(a-tags.o) (system__wch_con__get_wc_encoding_method)
C:\gnat\2017\arm-eabi\lib\gnat\ravenscar-full-stm32f4\adalib\\libgnat.a(s-valuns.o)
                              C:\gnat\2017\arm-eabi\lib\gnat\ravenscar-full-stm32f4\adalib\\libgnat.a(a-tags.o) (system__val_uns__value_unsigned)
C:\gnat\2017\arm-eabi\lib\gnat\ravenscar-full-stm32f4\adalib\\libgnat.a(s-traent.o)
                              C:\gnat\2017\arm-eabi\lib\gnat\ravenscar-full-stm32f4\adalib\\libgnat.a(a-except.o) (system__traceback_entries__pc_for)
C:\gnat\2017\arm-eabi\lib\gnat\ravenscar-full-stm32f4\adalib\\libgnat.a(s-memory.o)
                              C:\gnat\2017\arm-eabi\lib\gnat\ravenscar-full-stm32f4\adalib\\libgnat.a(s-exctab.o) (__gnat_malloc)
C:\gnat\2017\arm-eabi\lib\gnat\ravenscar-full-stm32f4\adalib\\libgnat.a(s-io.o)
                              C:\gnat\2017\arm-eabi\lib\gnat\ravenscar-full-stm32f4\adalib\\libgnat.a(a-elchha.o) (system__io__new_line)
C:\gnat\2017\arm-eabi\lib\gnat\ravenscar-full-stm32f4\adalib\\libgnat.a(s-except.o)
                              C:\gnat\2017\arm-eabi\lib\gnat\ravenscar-full-stm32f4\adalib\\libgnat.a(a-except.o) (system__exceptions__foreign_exception)
C:\gnat\2017\arm-eabi\lib\gnat\ravenscar-full-stm32f4\adalib\\libgnat.a(s-excdeb.o)
                              C:\gnat\2017\arm-eabi\lib\gnat\ravenscar-full-stm32f4\adalib\\libgnat.a(a-except.o) (__gnat_debug_raise_exception)
C:\gnat\2017\arm-eabi\lib\gnat\ravenscar-full-stm32f4\adalib\\libgnat.a(g-debuti.o)
                              C:\gnat\2017\arm-eabi\lib\gnat\ravenscar-full-stm32f4\adalib\\libgnat.a(a-elchha.o) (gnat__debug_utilities__image_c)
C:\gnat\2017\arm-eabi\lib\gnat\ravenscar-full-stm32f4\adalib\\libgnat.a(s-textio.o)
                              C:\gnat\2017\arm-eabi\lib\gnat\ravenscar-full-stm32f4\adalib\\libgnat.a(s-io.o) (system__text_io__initialize)
C:\gnat\2017\arm-eabi\lib\gnat\ravenscar-full-stm32f4\adalib\\libgnat.a(s-semiho.o)
                              C:\gnat\2017\arm-eabi\lib\gnat\ravenscar-full-stm32f4\adalib\\libgnat.a(s-textio.o) (system__semihosting__put)
C:\gnat\2017\arm-eabi\lib\gnat\ravenscar-full-stm32f4\adalib\\libgnat.a(s-valuti.o)
                              C:\gnat\2017\arm-eabi\lib\gnat\ravenscar-full-stm32f4\adalib\\libgnat.a(s-valuns.o) (system__val_util__bad_value)
C:\gnat\2017\arm-eabi\lib\gnat\ravenscar-full-stm32f4\adalib\\libgnat.a(s-casuti.o)
                              C:\gnat\2017\arm-eabi\lib\gnat\ravenscar-full-stm32f4\adalib\\libgnat.a(s-valuti.o) (system__case_util__to_upper)
c:/gnat/2017/bin/../lib/gcc/arm-eabi/6.3.1/../../../../arm-eabi/lib/armv7em/thumb/fpu/fpv4-sp-d16\libc.a(lib_a-malloc.o)
                              C:\gnat\2017\arm-eabi\lib\gnat\ravenscar-full-stm32f4\adalib\\libgnat.a(s-memory.o) (malloc)
c:/gnat/2017/bin/../lib/gcc/arm-eabi/6.3.1/../../../../arm-eabi/lib/armv7em/thumb/fpu/fpv4-sp-d16\libc.a(lib_a-mallocr.o)
                              c:/gnat/2017/bin/../lib/gcc/arm-eabi/6.3.1/../../../../arm-eabi/lib/armv7em/thumb/fpu/fpv4-sp-d16\libc.a(lib_a-malloc.o) (_malloc_r)
c:/gnat/2017/bin/../lib/gcc/arm-eabi/6.3.1/../../../../arm-eabi/lib/armv7em/thumb/fpu/fpv4-sp-d16\libc.a(lib_a-mlock.o)
                              c:/gnat/2017/bin/../lib/gcc/arm-eabi/6.3.1/../../../../arm-eabi/lib/armv7em/thumb/fpu/fpv4-sp-d16\libc.a(lib_a-mallocr.o) (__malloc_lock)
c:/gnat/2017/bin/../lib/gcc/arm-eabi/6.3.1/../../../../arm-eabi/lib/armv7em/thumb/fpu/fpv4-sp-d16\libc.a(lib_a-realloc.o)
                              C:\gnat\2017\arm-eabi\lib\gnat\ravenscar-full-stm32f4\adalib\\libgnat.a(s-memory.o) (realloc)
c:/gnat/2017/bin/../lib/gcc/arm-eabi/6.3.1/../../../../arm-eabi/lib/armv7em/thumb/fpu/fpv4-sp-d16\libc.a(lib_a-reallocr.o)
                              c:/gnat/2017/bin/../lib/gcc/arm-eabi/6.3.1/../../../../arm-eabi/lib/armv7em/thumb/fpu/fpv4-sp-d16\libc.a(lib_a-realloc.o) (_realloc_r)
c:/gnat/2017/bin/../lib/gcc/arm-eabi/6.3.1/../../../../arm-eabi/lib/armv7em/thumb/fpu/fpv4-sp-d16\libc.a(lib_a-sbrkr.o)
                              c:/gnat/2017/bin/../lib/gcc/arm-eabi/6.3.1/../../../../arm-eabi/lib/armv7em/thumb/fpu/fpv4-sp-d16\libc.a(lib_a-mallocr.o) (_sbrk_r)
c:/gnat/2017/bin/../lib/gcc/arm-eabi/6.3.1/../../../../arm-eabi/lib/armv7em/thumb/fpu/fpv4-sp-d16\libc.a(lib_a-freer.o)
                              c:/gnat/2017/bin/../lib/gcc/arm-eabi/6.3.1/../../../../arm-eabi/lib/armv7em/thumb/fpu/fpv4-sp-d16\libc.a(lib_a-malloc.o) (_free_r)
c:/gnat/2017/bin/../lib/gcc/arm-eabi/6.3.1/../../../../arm-eabi/lib/armv7em/thumb/fpu/fpv4-sp-d16\libc.a(lib_a-impure.o)
                              c:/gnat/2017/bin/../lib/gcc/arm-eabi/6.3.1/../../../../arm-eabi/lib/armv7em/thumb/fpu/fpv4-sp-d16\libc.a(lib_a-malloc.o) (_impure_ptr)
c:/gnat/2017/bin/../lib/gcc/arm-eabi/6.3.1/../../../../arm-eabi/lib/armv7em/thumb/fpu/fpv4-sp-d16\libc.a(lib_a-reent.o)
                              c:/gnat/2017/bin/../lib/gcc/arm-eabi/6.3.1/../../../../arm-eabi/lib/armv7em/thumb/fpu/fpv4-sp-d16\libc.a(lib_a-sbrkr.o) (errno)
C:\gnat\2017\arm-eabi\lib\gnat\ravenscar-full-stm32f4\adalib\\libgnat.a(newlib-bb.o)
                              c:/gnat/2017/bin/../lib/gcc/arm-eabi/6.3.1/../../../../arm-eabi/lib/armv7em/thumb/fpu/fpv4-sp-d16\libc.a(lib_a-sbrkr.o) (_sbrk)
c:/gnat/2017/bin/../lib/gcc/arm-eabi/6.3.1/armv7em/thumb/fpu/fpv4-sp-d16\libgcc.a(unwind-arm.o)
                              b__project_main.o (__aeabi_unwind_cpp_pr0)
c:/gnat/2017/bin/../lib/gcc/arm-eabi/6.3.1/armv7em/thumb/fpu/fpv4-sp-d16\libgcc.a(libunwind.o)
                              c:/gnat/2017/bin/../lib/gcc/arm-eabi/6.3.1/armv7em/thumb/fpu/fpv4-sp-d16\libgcc.a(unwind-arm.o) (restore_core_regs)
c:/gnat/2017/bin/../lib/gcc/arm-eabi/6.3.1/armv7em/thumb/fpu/fpv4-sp-d16\libgcc.a(pr-support.o)
                              c:/gnat/2017/bin/../lib/gcc/arm-eabi/6.3.1/armv7em/thumb/fpu/fpv4-sp-d16\libgcc.a(unwind-arm.o) (__gnu_unwind_execute)
c:/gnat/2017/bin/../lib/gcc/arm-eabi/6.3.1/../../../../arm-eabi/lib/armv7em/thumb/fpu/fpv4-sp-d16\libc.a(lib_a-errno.o)
                              C:\gnat\2017\arm-eabi\lib\gnat\ravenscar-full-stm32f4\adalib\\libgnat.a(newlib-bb.o) (__errno)

Allocating common symbols
Common symbol       size              file

errno               0x4               c:/gnat/2017/bin/../lib/gcc/arm-eabi/6.3.1/../../../../arm-eabi/lib/armv7em/thumb/fpu/fpv4-sp-d16\libc.a(lib_a-reent.o)

Memory Configuration

Name             Origin             Length             Attributes
flash            0x08000000         0x00100000         xr
sram12           0x20000000         0x00020000         xrw
ccm              0x10000000         0x00010000         rw
*default*        0x00000000         0xffffffff

Linker script and memory map

LOAD project_main.o
LOAD b__project_main.o
LOAD C:\Users\simon\OneDrive\Documents\STM32\System Project\obj\constants.o
LOAD C:\Users\simon\OneDrive\Documents\STM32\System Project\obj\failure_types.o
LOAD C:\Users\simon\OneDrive\Documents\STM32\System Project\obj\failure_log.o
LOAD C:\Users\simon\OneDrive\Documents\STM32\System Project\obj\first_phase.o
LOAD C:\Users\simon\OneDrive\Documents\STM32\System Project\obj\registers.o
LOAD C:\Users\simon\OneDrive\Documents\STM32\System Project\obj\signals.o
LOAD C:\Users\simon\OneDrive\Documents\STM32\System Project\obj\signal_register_database.o
LOAD C:\Users\simon\OneDrive\Documents\STM32\System Project\obj\main_system_checks.o
LOAD C:\gnat\2017\arm-eabi\lib\gnat\ravenscar-full-stm32f4\adalib\\libgnat.a
LOAD c:/gnat/2017/bin/../lib/gcc/arm-eabi/6.3.1/../../../../arm-eabi/lib/armv7em/thumb/fpu/fpv4-sp-d16\libc.a
LOAD C:\gnat\2017\arm-eabi\lib\gnat\ravenscar-full-stm32f4\adalib\\libgnat.a
LOAD c:/gnat/2017/bin/../lib/gcc/arm-eabi/6.3.1/armv7em/thumb/fpu/fpv4-sp-d16\libgcc.a
START GROUP
LOAD c:/gnat/2017/bin/../lib/gcc/arm-eabi/6.3.1/armv7em/thumb/fpu/fpv4-sp-d16\libgcc.a
LOAD c:/gnat/2017/bin/../lib/gcc/arm-eabi/6.3.1/../../../../arm-eabi/lib/armv7em/thumb/fpu/fpv4-sp-d16\libc.a
END GROUP
                0x00000000                __DYNAMIC = 0x0
                0x00001000                _DEFAULT_STACK_SIZE = 0x1000

.text           0x08000000     0x8f34
 *(.vectors)
 .vectors       0x08000000       0x14 C:\gnat\2017\arm-eabi\lib\gnat\ravenscar-full-stm32f4\adalib\\libgnat.a(start-rom.o)
 *(.text .text.* .gnu.linkonce.t*)
 .text          0x08000014       0x28 project_main.o
                0x08000014                _ada_project_main
 .text          0x0800003c      0x1b8 b__project_main.o
                0x0800003c                adafinal
                0x08000068                adainit
                0x080001c4                main
 .text          0x080001f4        0x0 C:\Users\simon\OneDrive\Documents\STM32\System Project\obj\constants.o
 .text          0x080001f4       0x50 C:\Users\simon\OneDrive\Documents\STM32\System Project\obj\failure_types.o
                0x080001f4                failure_types__failure_attributes_typeIP
                0x08000230                failure_types__Tfailure_log_array_typeBIP
 .text          0x08000244       0x2c C:\Users\simon\OneDrive\Documents\STM32\System Project\obj\failure_log.o
                0x08000244                failure_log__severity_calculator
 .text          0x08000270       0x2c C:\Users\simon\OneDrive\Documents\STM32\System Project\obj\first_phase.o
                0x08000270                first_phase__initialise
 .text          0x0800029c       0xb0 C:\Users\simon\OneDrive\Documents\STM32\System Project\obj\registers.o
                0x0800029c                registers__input_registersRP
                0x08000314                registers__output_registersRP
 .text          0x0800034c       0x78 C:\Users\simon\OneDrive\Documents\STM32\System Project\obj\signals.o
                0x0800034c                signals__input_signal_typeRP
                0x0800038c                signals__output_signal_typeRP
 .text          0x080003c4       0x50 C:\Users\simon\OneDrive\Documents\STM32\System Project\obj\signal_register_database.o
                0x080003c4                signal_register_database__input_signals_databaseIP
                0x080003d8                signal_register_database__Tinput_register_mapping_arrayBIP
                0x080003ec                signal_register_database__output_signals_databaseIP
                0x08000400                signal_register_database__Toutput_register_mapping_arrayBIP
 .text          0x08000414       0xa8 C:\Users\simon\OneDrive\Documents\STM32\System Project\obj\main_system_checks.o
                0x08000414                main_system_checks__get_signal_state
                0x08000468                main_system_checks__hanger_door_check
                0x08000484                main_system_checks__rocket_motor_check
                0x080004a0                main_system_checks__clamp_rings_check
 .text          0x080004bc       0x70 C:\gnat\2017\arm-eabi\lib\gnat\ravenscar-full-stm32f4\adalib\\libgnat.a(start-rom.o)
                0x080004bc                _start_rom
 .text          0x0800052c      0x104 C:\gnat\2017\arm-eabi\lib\gnat\ravenscar-full-stm32f4\adalib\\libgnat.a(start-common.o)
                0x0800052c                _stm32_start_common
 .text          0x08000630        0x0 C:\gnat\2017\arm-eabi\lib\gnat\ravenscar-full-stm32f4\adalib\\libgnat.a(setup_pll.o)
 .text._ada_setup_pll
                0x08000630      0x394 C:\gnat\2017\arm-eabi\lib\gnat\ravenscar-full-stm32f4\adalib\\libgnat.a(setup_pll.o)
                0x08000630                _ada_setup_pll
 .text          0x080009c4        0x0 C:\gnat\2017\arm-eabi\lib\gnat\ravenscar-full-stm32f4\adalib\\libgnat.a(s-macres.o)
 .text.abort    0x080009c4       0x10 C:\gnat\2017\arm-eabi\lib\gnat\ravenscar-full-stm32f4\adalib\\libgnat.a(s-macres.o)
                0x080009c4                abort
 .text._exit    0x080009d4       0x10 C:\gnat\2017\arm-eabi\lib\gnat\ravenscar-full-stm32f4\adalib\\libgnat.a(s-macres.o)
                0x080009d4                _exit
 .text.system__machine_reset__stop
                0x080009e4       0x10 C:\gnat\2017\arm-eabi\lib\gnat\ravenscar-full-stm32f4\adalib\\libgnat.a(s-macres.o)
                0x080009e4                system__machine_reset__stop
 .text          0x080009f4        0x0 C:\gnat\2017\arm-eabi\lib\gnat\ravenscar-full-stm32f4\adalib\\libgnat.a(s-taskin.o)
 .text.system__tasking__E5sIP
                0x080009f4        0x8 C:\gnat\2017\arm-eabi\lib\gnat\ravenscar-full-stm32f4\adalib\\libgnat.a(s-taskin.o)
                0x080009f4                system__tasking__E5sIP
 .text.system__tasking__entry_queueIP
                0x080009fc        0x8 C:\gnat\2017\arm-eabi\lib\gnat\ravenscar-full-stm32f4\adalib\\libgnat.a(s-taskin.o)
                0x080009fc                system__tasking__entry_queueIP
 .text.system__tasking__activation_chainIP
                0x08000a04        0x8 C:\gnat\2017\arm-eabi\lib\gnat\ravenscar-full-stm32f4\adalib\\libgnat.a(s-taskin.o)
                0x08000a04                system__tasking__activation_chainIP
 .text.__gnat_get_secondary_stack
                0x08000a0c       0x10 C:\gnat\2017\arm-eabi\lib\gnat\ravenscar-full-stm32f4\adalib\\libgnat.a(s-taskin.o)
                0x08000a0c                __gnat_get_secondary_stack
 .text.system__tasking__initialize_atcb
                0x08000a1c       0x3c C:\gnat\2017\arm-eabi\lib\gnat\ravenscar-full-stm32f4\adalib\\libgnat.a(s-taskin.o)
                0x08000a1c                system__tasking__initialize_atcb
 .text.system__tasking__initialize
                0x08000a58      0x13c C:\gnat\2017\arm-eabi\lib\gnat\ravenscar-full-stm32f4\adalib\\libgnat.a(s-taskin.o)
                0x08000a58                system__tasking__initialize
 .text.system__tasking__self
                0x08000b94        0xc C:\gnat\2017\arm-eabi\lib\gnat\ravenscar-full-stm32f4\adalib\\libgnat.a(s-taskin.o)
                0x08000b94                system__tasking(short,...)(long, float)
 .text.system__tasking__set_sec_stack
                0x08000ba0       0x10 C:\gnat\2017\arm-eabi\lib\gnat\ravenscar-full-stm32f4\adalib\\libgnat.a(s-taskin.o)
                0x08000ba0                system__tasking__set_sec_stack
 .text.system__tasking__storage_size
                0x08000bb0        0x8 C:\gnat\2017\arm-eabi\lib\gnat\ravenscar-full-stm32f4\adalib\\libgnat.a(s-taskin.o)
                0x08000bb0                system__tasking__storage_size
 .text          0x08000bb8        0x0 C:\gnat\2017\arm-eabi\lib\gnat\ravenscar-full-stm32f4\adalib\\libgnat.a(s-tasdeb.o)
 .text.system__tasking__debug__add_task_id
                0x08000bb8       0x3c C:\gnat\2017\arm-eabi\lib\gnat\ravenscar-full-stm32f4\adalib\\libgnat.a(s-tasdeb.o)
                0x08000bb8                system__tasking__debug__add_task_id
 .text          0x08000bf4        0x0 C:\gnat\2017\arm-eabi\lib\gnat\ravenscar-full-stm32f4\adalib\\libgnat.a(s-taprop.o)
 .text.system__task_primitives__operations__Tidle_stacksBIP
                0x08000bf4        0x4 C:\gnat\2017\arm-eabi\lib\gnat\ravenscar-full-stm32f4\adalib\\libgnat.a(s-taprop.o)
                0x08000bf4                system__task_primitives__operations__Tidle_stacksBIP
 .text.system__task_primitives__operations__Tidle_stacks_tableBIP
                0x08000bf8        0x4 C:\gnat\2017\arm-eabi\lib\gnat\ravenscar-full-stm32f4\adalib\\libgnat.a(s-taprop.o)
                0x08000bf8                system__task_primitives__operations__Tidle_stacks_tableBIP
 .text.system__task_primitives__operations__Tidle_tasksBIP
                0x08000bfc        0x4 C:\gnat\2017\arm-eabi\lib\gnat\ravenscar-full-stm32f4\adalib\\libgnat.a(s-taprop.o)
                0x08000bfc                system__task_primitives__operations__Tidle_tasksBIP
 .text.system__task_primitives__operations__self
                0x08000c00        0xc C:\gnat\2017\arm-eabi\lib\gnat\ravenscar-full-stm32f4\adalib\\libgnat.a(s-taprop.o)
                0x08000c00                system__task_primitives__operations(short,...)(long, float)
 .text.system__task_primitives__operations__sleep
                0x08000c0c        0x4 C:\gnat\2017\arm-eabi\lib\gnat\ravenscar-full-stm32f4\adalib\\libgnat.a(s-taprop.o)
                0x08000c0c                system__task_primitives__operations(short, long,...)(...)( *)
 .text.system__task_primitives__operations__delay_until
                0x08000c10       0x1c C:\gnat\2017\arm-eabi\lib\gnat\ravenscar-full-stm32f4\adalib\\libgnat.a(s-taprop.o)
                0x08000c10                system__task_primitives__operations__delay_until
 .text.system__task_primitives__operations__monotonic_clock
                0x08000c2c       0x5c C:\gnat\2017\arm-eabi\lib\gnat\ravenscar-full-stm32f4\adalib\\libgnat.a(s-taprop.o)
                0x08000c2c                system__task_primitives__operations__monotonic_clock
 .text.system__task_primitives__operations__wakeup
                0x08000c88        0x8 C:\gnat\2017\arm-eabi\lib\gnat\ravenscar-full-stm32f4\adalib\\libgnat.a(s-taprop.o)
                0x08000c88                system__task_primitives__operations__wakeup
 .text.system__task_primitives__operations__set_priority
                0x08000c90       0x18 C:\gnat\2017\arm-eabi\lib\gnat\ravenscar-full-stm32f4\adalib\\libgnat.a(s-taprop.o)
                0x08000c90                system__task_primitives__operations__set_priority
 .text.system__task_primitives__operations__get_priority
                0x08000ca8        0x8 C:\gnat\2017\arm-eabi\lib\gnat\ravenscar-full-stm32f4\adalib\\libgnat.a(s-taprop.o)
                0x08000ca8                system__task_primitives__operations__get_priority
 .text.system__task_primitives__operations__get_affinity
                0x08000cb0        0xc C:\gnat\2017\arm-eabi\lib\gnat\ravenscar-full-stm32f4\adalib\\libgnat.a(s-taprop.o)
                0x08000cb0                system__task_primitives__operations__get_affinity
 .text.system__task_primitives__operations__get_cpu
                0x08000cbc       0x10 C:\gnat\2017\arm-eabi\lib\gnat\ravenscar-full-stm32f4\adalib\\libgnat.a(s-taprop.o)
                0x08000cbc                system__task_primitives__operations__get_cpu
 .text.system__task_primitives__operations__get_thread_id
                0x08000ccc        0x8 C:\gnat\2017\arm-eabi\lib\gnat\ravenscar-full-stm32f4\adalib\\libgnat.a(s-taprop.o)
                0x08000ccc                system__task_primitives__operations__get_thread_id
 .text.system__task_primitives__operations__enter_task
                0x08000cd4       0x3c C:\gnat\2017\arm-eabi\lib\gnat\ravenscar-full-stm32f4\adalib\\libgnat.a(s-taprop.o)
                0x08000cd4                system__task_primitives__operations__enter_task
 .text.system__task_primitives__operations__idle
                0x08000d10       0x14 C:\gnat\2017\arm-eabi\lib\gnat\ravenscar-full-stm32f4\adalib\\libgnat.a(s-taprop.o)
                0x08000d10                system__task_primitives__operations(int, double, long,...)
 .text.system__task_primitives__operations__initialize_tcb
                0x08000d24        0x4 C:\gnat\2017\arm-eabi\lib\gnat\ravenscar-full-stm32f4\adalib\\libgnat.a(s-taprop.o)
                0x08000d24                system__task_primitives__operations__initialize_tcb
 .text.system__task_primitives__operations__create_task
                0x08000d28       0x38 C:\gnat\2017\arm-eabi\lib\gnat\ravenscar-full-stm32f4\adalib\\libgnat.a(s-taprop.o)
                0x08000d28                system__task_primitives__operations__create_task
 .text.system__task_primitives__operations__initialize_idle
                0x08000d60       0x70 C:\gnat\2017\arm-eabi\lib\gnat\ravenscar-full-stm32f4\adalib\\libgnat.a(s-taprop.o)
                0x08000d60                system__task_primitives__operations__initialize_idle
 .text.__gnat_initialize_slave
                0x08000dd0       0x44 C:\gnat\2017\arm-eabi\lib\gnat\ravenscar-full-stm32f4\adalib\\libgnat.a(s-taprop.o)
                0x08000dd0                __gnat_initialize_slave
 .text.system__task_primitives__operations__initialize
                0x08000e14       0xb0 C:\gnat\2017\arm-eabi\lib\gnat\ravenscar-full-stm32f4\adalib\\libgnat.a(s-taprop.o)
                0x08000e14                system__task_primitives__operations__initialize
 .text.system__task_primitives__operations__is_task_context
                0x08000ec4       0x14 C:\gnat\2017\arm-eabi\lib\gnat\ravenscar-full-stm32f4\adalib\\libgnat.a(s-taprop.o)
                0x08000ec4                system__task_primitives__operations__is_task_context
 .text          0x08000ed8        0x0 C:\gnat\2017\arm-eabi\lib\gnat\ravenscar-full-stm32f4\adalib\\libgnat.a(s-parame.o)
 .text.system__parameters__adjust_storage_size
                0x08000ed8        0xc C:\gnat\2017\arm-eabi\lib\gnat\ravenscar-full-stm32f4\adalib\\libgnat.a(s-parame.o)
                0x08000ed8                system__parameters__adjust_storage_size
 .text          0x08000ee4        0x0 C:\gnat\2017\arm-eabi\lib\gnat\ravenscar-full-stm32f4\adalib\\libgnat.a(s-bcprmu.o)
 .text.__gnat_start_slave_cpus
                0x08000ee4        0x4 C:\gnat\2017\arm-eabi\lib\gnat\ravenscar-full-stm32f4\adalib\\libgnat.a(s-bcprmu.o)
                0x08000ee4                __gnat_start_slave_cpus
 .text.system__bb__cpu_primitives__multiprocessors__poke_handler
                0x08000ee8       0x6c C:\gnat\2017\arm-eabi\lib\gnat\ravenscar-full-stm32f4\adalib\\libgnat.a(s-bcprmu.o)
                0x08000ee8                system__bb__cpu_primitives__multiprocessors__poke_handler
 .text          0x08000f54        0x0 C:\gnat\2017\arm-eabi\lib\gnat\ravenscar-full-stm32f4\adalib\\libgnat.a(s-bbtiev.o)
 .text.system__bb__timing_events___size
                0x08000f54        0x8 C:\gnat\2017\arm-eabi\lib\gnat\ravenscar-full-stm32f4\adalib\\libgnat.a(s-bbtiev.o)
                0x08000f54                system__bb__timing_events___size
 .text.system__bb__timing_events__timing_eventDF
                0x08000f5c        0x4 C:\gnat\2017\arm-eabi\lib\gnat\ravenscar-full-stm32f4\adalib\\libgnat.a(s-bbtiev.o)
                0x08000f5c                system__bb__timing_events__timing_eventDF
 .text.system__bb__timing_events__current_handler
                0x08000f60        0x4 C:\gnat\2017\arm-eabi\lib\gnat\ravenscar-full-stm32f4\adalib\\libgnat.a(s-bbtiev.o)
                0x08000f60                system__bb__timing_events__current_handler
 .text.system__bb__timing_events__time_of_event
                0x08000f64       0x10 C:\gnat\2017\arm-eabi\lib\gnat\ravenscar-full-stm32f4\adalib\\libgnat.a(s-bbtiev.o)
                0x08000f64                system__bb__timing_events__time_of_event
 .text.system__bb__timing_events__set_handler
                0x08000f74       0xa4 C:\gnat\2017\arm-eabi\lib\gnat\ravenscar-full-stm32f4\adalib\\libgnat.a(s-bbtiev.o)
                0x08000f74                system__bb__timing_events__set_handler
 .text.system__bb__timing_events__cancel_handler
                0x08001018       0x5c C:\gnat\2017\arm-eabi\lib\gnat\ravenscar-full-stm32f4\adalib\\libgnat.a(s-bbtiev.o)
                0x08001018                system__bb__timing_events__cancel_handler
 .text.system__bb__timing_events__timing_eventIP
                0x08001074       0x20 C:\gnat\2017\arm-eabi\lib\gnat\ravenscar-full-stm32f4\adalib\\libgnat.a(s-bbtiev.o)
                0x08001074                system__bb__timing_events__timing_eventIP
 .text.system__bb__timing_events__Ttiming_eventCFD
                0x08001094        0xc C:\gnat\2017\arm-eabi\lib\gnat\ravenscar-full-stm32f4\adalib\\libgnat.a(s-bbtiev.o)
                0x08001094                system__bb__timing_events__Ttiming_eventCFD
 .text.system__bb__timing_events__finalize_spec
                0x080010a0        0xc C:\gnat\2017\arm-eabi\lib\gnat\ravenscar-full-stm32f4\adalib\\libgnat.a(s-bbtiev.o)
                0x080010a0                system__bb__timing_events__finalize_spec
 .text.system__bb__timing_events__execute_expired_timing_events
                0x080010ac       0x7c C:\gnat\2017\arm-eabi\lib\gnat\ravenscar-full-stm32f4\adalib\\libgnat.a(s-bbtiev.o)
                0x080010ac                system__bb__timing_events__execute_expired_timing_events
 .text.system__bb__timing_events__get_next_timeout
                0x08001128       0x24 C:\gnat\2017\arm-eabi\lib\gnat\ravenscar-full-stm32f4\adalib\\libgnat.a(s-bbtiev.o)
                0x08001128                system__bb__timing_events__get_next_timeout
 .text.system__bb__timing_events___elabs
                0x0800114c        0xc C:\gnat\2017\arm-eabi\lib\gnat\ravenscar-full-stm32f4\adalib\\libgnat.a(s-bbtiev.o)
                0x0800114c                system__bb__timing_events___elabs
 .text          0x08001158        0x0 C:\gnat\2017\arm-eabi\lib\gnat\ravenscar-full-stm32f4\adalib\\libgnat.a(s-bbthre.o)
 .text.system__bb__threads__thread_descriptorIP
                0x08001158        0xc C:\gnat\2017\arm-eabi\lib\gnat\ravenscar-full-stm32f4\adalib\\libgnat.a(s-bbthre.o)
                0x08001158                system__bb__threads__thread_descriptorIP
 .text.system__bb__threads__get_affinity
                0x08001164        0x8 C:\gnat\2017\arm-eabi\lib\gnat\ravenscar-full-stm32f4\adalib\\libgnat.a(s-bbthre.o)
                0x08001164                system__bb__threads__get_affinity
 .text.system__bb__threads__get_cpu
                0x0800116c        0xc C:\gnat\2017\arm-eabi\lib\gnat\ravenscar-full-stm32f4\adalib\\libgnat.a(s-bbthre.o)
                0x0800116c                system__bb__threads__get_cpu
 .text.system__bb__threads__get_atcb
                0x08001178        0xc C:\gnat\2017\arm-eabi\lib\gnat\ravenscar-full-stm32f4\adalib\\libgnat.a(s-bbthre.o)
                0x08001178                system__bb__threads__get_atcb
 .text.system__bb__threads__get_priority
                0x08001184        0x4 C:\gnat\2017\arm-eabi\lib\gnat\ravenscar-full-stm32f4\adalib\\libgnat.a(s-bbthre.o)
                0x08001184                system__bb__threads__get_priority
 .text.system__bb__threads__initialize
                0x08001188      0x150 C:\gnat\2017\arm-eabi\lib\gnat\ravenscar-full-stm32f4\adalib\\libgnat.a(s-bbthre.o)
                0x08001188                system__bb__threads__initialize
 .text.system__bb__threads__initialize_slave
                0x080012d8       0xa8 C:\gnat\2017\arm-eabi\lib\gnat\ravenscar-full-stm32f4\adalib\\libgnat.a(s-bbthre.o)
                0x080012d8                system__bb__threads__initialize_slave
 .text.system__bb__threads__set_atcb
                0x08001380        0x4 C:\gnat\2017\arm-eabi\lib\gnat\ravenscar-full-stm32f4\adalib\\libgnat.a(s-bbthre.o)
                0x08001380                system__bb__threads__set_atcb
 .text.system__bb__threads__set_priority
                0x08001384       0x1c C:\gnat\2017\arm-eabi\lib\gnat\ravenscar-full-stm32f4\adalib\\libgnat.a(s-bbthre.o)
                0x08001384                system__bb__threads__set_priority
 .text.system__bb__threads__sleep
                0x080013a0       0x48 C:\gnat\2017\arm-eabi\lib\gnat\ravenscar-full-stm32f4\adalib\\libgnat.a(s-bbthre.o)
                0x080013a0                system__bb__threads(short, long,...)(...)( *)
 .text.system__bb__threads__thread_create
                0x080013e8      0x10c C:\gnat\2017\arm-eabi\lib\gnat\ravenscar-full-stm32f4\adalib\\libgnat.a(s-bbthre.o)
                0x080013e8                system__bb__threads__thread_create
 .text.system__bb__threads__thread_self
                0x080014f4        0xc C:\gnat\2017\arm-eabi\lib\gnat\ravenscar-full-stm32f4\adalib\\libgnat.a(s-bbthre.o)
                0x080014f4                system__bb__threads__thread_self
 .text.system__bb__threads__wakeup
                0x08001500       0x9c C:\gnat\2017\arm-eabi\lib\gnat\ravenscar-full-stm32f4\adalib\\libgnat.a(s-bbthre.o)
                0x08001500                system__bb__threads__wakeup
 .text          0x0800159c        0x0 C:\gnat\2017\arm-eabi\lib\gnat\ravenscar-full-stm32f4\adalib\\libgnat.a(s-bbthqu.o)
 .text.system__bb__threads__queues__change_priority
                0x0800159c       0x70 C:\gnat\2017\arm-eabi\lib\gnat\ravenscar-full-stm32f4\adalib\\libgnat.a(s-bbthqu.o)
                0x0800159c                system__bb__threads__queues__change_priority
 .text.__gnat_context_switch_needed
                0x0800160c       0x18 C:\gnat\2017\arm-eabi\lib\gnat\ravenscar-full-stm32f4\adalib\\libgnat.a(s-bbthqu.o)
                0x0800160c                __gnat_context_switch_needed
 .text.system__bb__threads__queues__current_priority
                0x08001624       0x20 C:\gnat\2017\arm-eabi\lib\gnat\ravenscar-full-stm32f4\adalib\\libgnat.a(s-bbthqu.o)
                0x08001624                system__bb__threads__queues__current_priority
 .text.system__bb__threads__queues__extract
                0x08001644       0x28 C:\gnat\2017\arm-eabi\lib\gnat\ravenscar-full-stm32f4\adalib\\libgnat.a(s-bbthqu.o)
                0x08001644                system__bb__threads__queues__extract
 .text.system__bb__threads__queues__extract_first_alarm
                0x0800166c       0x24 C:\gnat\2017\arm-eabi\lib\gnat\ravenscar-full-stm32f4\adalib\\libgnat.a(s-bbthqu.o)
                0x0800166c                system__bb__threads__queues__extract_first_alarm
 .text.system__bb__threads__queues__first_thread
                0x08001690        0xc C:\gnat\2017\arm-eabi\lib\gnat\ravenscar-full-stm32f4\adalib\\libgnat.a(s-bbthqu.o)
                0x08001690                system__bb__threads__queues__first_thread
 .text.system__bb__threads__queues__get_next_alarm_time
                0x0800169c       0x24 C:\gnat\2017\arm-eabi\lib\gnat\ravenscar-full-stm32f4\adalib\\libgnat.a(s-bbthqu.o)
                0x0800169c                system__bb__threads__queues__get_next_alarm_time
 .text.system__bb__threads__queues__insert
                0x080016c0       0x90 C:\gnat\2017\arm-eabi\lib\gnat\ravenscar-full-stm32f4\adalib\\libgnat.a(s-bbthqu.o)
                0x080016c0                system__bb__threads__queues__insert
 .text.system__bb__threads__queues__insert_alarm
                0x08001750       0x64 C:\gnat\2017\arm-eabi\lib\gnat\ravenscar-full-stm32f4\adalib\\libgnat.a(s-bbthqu.o)
                0x08001750                system__bb__threads__queues__insert_alarm
 .text.system__bb__threads__queues__running_thread
                0x080017b4        0xc C:\gnat\2017\arm-eabi\lib\gnat\ravenscar-full-stm32f4\adalib\\libgnat.a(s-bbthqu.o)
                0x080017b4                system__bb__threads__queues__running_thread
 .text.system__bb__threads__queues__wakeup_expired_alarms
                0x080017c0       0xf4 C:\gnat\2017\arm-eabi\lib\gnat\ravenscar-full-stm32f4\adalib\\libgnat.a(s-bbthqu.o)
                0x080017c0                system__bb__threads__queues__wakeup_expired_alarms
 .text.system__bb__threads__queues__yield
                0x080018b4       0x4c C:\gnat\2017\arm-eabi\lib\gnat\ravenscar-full-stm32f4\adalib\\libgnat.a(s-bbthqu.o)
                0x080018b4                system__bb__threads__queues__yield
 .text          0x08001900        0x0 C:\gnat\2017\arm-eabi\lib\gnat\ravenscar-full-stm32f4\adalib\\libgnat.a(s-bbprot.o)
 .text.system__bb__protection__enter_kernel
                0x08001900        0x4 C:\gnat\2017\arm-eabi\lib\gnat\ravenscar-full-stm32f4\adalib\\libgnat.a(s-bbprot.o)
                0x08001900                system__bb__protection__enter_kernel
 .text.system__bb__protection__leave_kernel
                0x08001904       0x54 C:\gnat\2017\arm-eabi\lib\gnat\ravenscar-full-stm32f4\adalib\\libgnat.a(s-bbprot.o)
                0x08001904                system__bb__protection__leave_kernel
 .text          0x08001958        0x0 C:\gnat\2017\arm-eabi\lib\gnat\ravenscar-full-stm32f4\adalib\\libgnat.a(s-stalib.o)
 .text.system__standard_library__exception_dataIP
                0x08001958        0x8 C:\gnat\2017\arm-eabi\lib\gnat\ravenscar-full-stm32f4\adalib\\libgnat.a(s-stalib.o)
                0x08001958                system__standard_library__exception_dataIP
 .text.system__standard_library__abort_undefer_direct
                0x08001960        0x4 C:\gnat\2017\arm-eabi\lib\gnat\ravenscar-full-stm32f4\adalib\\libgnat.a(s-stalib.o)
                0x08001960                system__standard_library__abort_undefer_direct
 .text.system__standard_library__adafinal
                0x08001964       0x1c C:\gnat\2017\arm-eabi\lib\gnat\ravenscar-full-stm32f4\adalib\\libgnat.a(s-stalib.o)
                0x08001964                system__standard_library__adafinal
 .text.__gnat_break_start
                0x08001980        0x4 C:\gnat\2017\arm-eabi\lib\gnat\ravenscar-full-stm32f4\adalib\\libgnat.a(s-stalib.o)
                0x08001980                __gnat_break_start
 .text          0x08001984        0x0 C:\gnat\2017\arm-eabi\lib\gnat\ravenscar-full-stm32f4\adalib\\libgnat.a(s-soflin.o)
 .text.system__soft_links__abort_undefer_raven
                0x08001984        0x4 C:\gnat\2017\arm-eabi\lib\gnat\ravenscar-full-stm32f4\adalib\\libgnat.a(s-soflin.o)
                0x08001984                system__soft_links__abort_undefer_raven
 .text.system__soft_links__get_current_excep_soft
                0x08001988       0x10 C:\gnat\2017\arm-eabi\lib\gnat\ravenscar-full-stm32f4\adalib\\libgnat.a(s-soflin.o)
                0x08001988                system__soft_links__get_current_excep_soft
 .text.system__soft_links__adafinal_soft
                0x08001998       0x10 C:\gnat\2017\arm-eabi\lib\gnat\ravenscar-full-stm32f4\adalib\\libgnat.a(s-soflin.o)
                0x08001998                system__soft_links__adafinal_soft
 .text.system__soft_links__task_lock_soft
                0x080019a8       0x3c C:\gnat\2017\arm-eabi\lib\gnat\ravenscar-full-stm32f4\adalib\\libgnat.a(s-soflin.o)
                0x080019a8                system__soft_links__task_lock_soft
 .text.system__soft_links__task_termination_soft
                0x080019e4       0x5c C:\gnat\2017\arm-eabi\lib\gnat\ravenscar-full-stm32f4\adalib\\libgnat.a(s-soflin.o)
                0x080019e4                system__soft_links__task_termination_soft
 .text.system__soft_links__task_unlock_soft
                0x08001a40       0x34 C:\gnat\2017\arm-eabi\lib\gnat\ravenscar-full-stm32f4\adalib\\libgnat.a(s-soflin.o)
                0x08001a40                system__soft_links__task_unlock_soft
 .text.system__soft_links__abort_defer_raven
                0x08001a74        0x4 C:\gnat\2017\arm-eabi\lib\gnat\ravenscar-full-stm32f4\adalib\\libgnat.a(s-soflin.o)
                0x08001a74                system__soft_links__abort_defer_raven
 .text.system__soft_links__get_gnat_exception
                0x08001a78       0x10 C:\gnat\2017\arm-eabi\lib\gnat\ravenscar-full-stm32f4\adalib\\libgnat.a(s-soflin.o)
                0x08001a78                system__soft_links__get_gnat_exception
 .text.system__soft_links___elabs
                0x08001a88       0x1c C:\gnat\2017\arm-eabi\lib\gnat\ravenscar-full-stm32f4\adalib\\libgnat.a(s-soflin.o)
                0x08001a88                system__soft_links___elabs
 .text          0x08001aa4        0x0 C:\gnat\2017\arm-eabi\lib\gnat\ravenscar-full-stm32f4\adalib\\libgnat.a(s-init.o)
 .text.__gnat_finalize
                0x08001aa4        0x4 C:\gnat\2017\arm-eabi\lib\gnat\ravenscar-full-stm32f4\adalib\\libgnat.a(s-init.o)
                0x08001aa4                __gnat_finalize
 .text.__gnat_initialize
                0x08001aa8        0x4 C:\gnat\2017\arm-eabi\lib\gnat\ravenscar-full-stm32f4\adalib\\libgnat.a(s-init.o)
                0x08001aa8                __gnat_initialize
 .text.__gnat_install_handler
                0x08001aac       0x54 C:\gnat\2017\arm-eabi\lib\gnat\ravenscar-full-stm32f4\adalib\\libgnat.a(s-init.o)
                0x08001aac                __gnat_install_handler
 .text.__gnat_runtime_initialize
                0x08001b00       0x58 C:\gnat\2017\arm-eabi\lib\gnat\ravenscar-full-stm32f4\adalib\\libgnat.a(s-init.o)
                0x08001b00                __gnat_runtime_initialize
 .text.__gnat_runtime_finalize
                0x08001b58        0x4 C:\gnat\2017\arm-eabi\lib\gnat\ravenscar-full-stm32f4\adalib\\libgnat.a(s-init.o)
                0x08001b58                __gnat_runtime_finalize
 .text          0x08001b5c        0x0 C:\gnat\2017\arm-eabi\lib\gnat\ravenscar-full-stm32f4\adalib\\libgnat.a(s-exctab.o)
 .text.system__exception_table__register.part.1
                0x08001b5c       0x64 C:\gnat\2017\arm-eabi\lib\gnat\ravenscar-full-stm32f4\adalib\\libgnat.a(s-exctab.o)
 .text.system__exception_table__exception_data_arrayIP
                0x08001bc0       0x20 C:\gnat\2017\arm-eabi\lib\gnat\ravenscar-full-stm32f4\adalib\\libgnat.a(s-exctab.o)
                0x08001bc0                system__exception_table__exception_data_arrayIP
 .text.system__exception_table__ThtableBIP
                0x08001be0       0x24 C:\gnat\2017\arm-eabi\lib\gnat\ravenscar-full-stm32f4\adalib\\libgnat.a(s-exctab.o)
                0x08001be0                system__exception_table__ThtableBIP
 .text.system__exception_table__has_name
                0x08001c04       0x30 C:\gnat\2017\arm-eabi\lib\gnat\ravenscar-full-stm32f4\adalib\\libgnat.a(s-exctab.o)
                0x08001c04                system__exception_table__has_name
 .text.system__exception_table__lookup
                0x08001c34       0x94 C:\gnat\2017\arm-eabi\lib\gnat\ravenscar-full-stm32f4\adalib\\libgnat.a(s-exctab.o)
                0x08001c34                system__exception_table__lookup
 .text.system__exception_table__hash
                0x08001cc8       0x70 C:\gnat\2017\arm-eabi\lib\gnat\ravenscar-full-stm32f4\adalib\\libgnat.a(s-exctab.o)
                0x08001cc8                system__exception_table__hash
 .text.system__exception_table__register
                0x08001d38        0xc C:\gnat\2017\arm-eabi\lib\gnat\ravenscar-full-stm32f4\adalib\\libgnat.a(s-exctab.o)
                0x08001d38                system__exception_table__register
 .text.system__exception_table__get_registered_exceptions
                0x08001d44       0x58 C:\gnat\2017\arm-eabi\lib\gnat\ravenscar-full-stm32f4\adalib\\libgnat.a(s-exctab.o)
                0x08001d44                system__exception_table__get_registered_exceptions
 .text.system__exception_table__internal_exception
                0x08001d9c      0x118 C:\gnat\2017\arm-eabi\lib\gnat\ravenscar-full-stm32f4\adalib\\libgnat.a(s-exctab.o)
                0x08001d9c                system__exception_table__internal_exception
 .text.system__exception_table__register_exception
                0x08001eb4       0x30 C:\gnat\2017\arm-eabi\lib\gnat\ravenscar-full-stm32f4\adalib\\libgnat.a(s-exctab.o)
                0x08001eb4                system__exception_table__register_exception
 .text.system__exception_table__registered_exceptions_count
                0x08001ee4       0x54 C:\gnat\2017\arm-eabi\lib\gnat\ravenscar-full-stm32f4\adalib\\libgnat.a(s-exctab.o)
                0x08001ee4                system__exception_table__registered_exceptions_count
 .text.system__exception_table___elabb
                0x08001f38       0x7c C:\gnat\2017\arm-eabi\lib\gnat\ravenscar-full-stm32f4\adalib\\libgnat.a(s-exctab.o)
                0x08001f38                system__exception_table___elabb
 .text          0x08001fb4        0x0 C:\gnat\2017\arm-eabi\lib\gnat\ravenscar-full-stm32f4\adalib\\libgnat.a(a-tags.o)
 .text.ada__tags__iw_membership__2
                0x08001fb4       0x4c C:\gnat\2017\arm-eabi\lib\gnat\ravenscar-full-stm32f4\adalib\\libgnat.a(a-tags.o)
 .text.ada__tags__tag_arrayIP
                0x08002000       0x20 C:\gnat\2017\arm-eabi\lib\gnat\ravenscar-full-stm32f4\adalib\\libgnat.a(a-tags.o)
                0x08002000                ada__tags__tag_arrayIP
 .text.ada__tags__interface_data_elementIP
                0x08002020        0x8 C:\gnat\2017\arm-eabi\lib\gnat\ravenscar-full-stm32f4\adalib\\libgnat.a(a-tags.o)
                0x08002020                ada__tags__interface_data_elementIP
 .text.ada__tags__interfaces_arrayIP
                0x08002028       0x24 C:\gnat\2017\arm-eabi\lib\gnat\ravenscar-full-stm32f4\adalib\\libgnat.a(a-tags.o)
                0x08002028                ada__tags__interfaces_arrayIP
 .text.ada__tags__interface_dataIP
                0x0800204c       0x28 C:\gnat\2017\arm-eabi\lib\gnat\ravenscar-full-stm32f4\adalib\\libgnat.a(a-tags.o)
                0x0800204c                ada__tags__interface_dataIP
 .text.ada__tags__select_specific_data_elementIP
                0x08002074        0x4 C:\gnat\2017\arm-eabi\lib\gnat\ravenscar-full-stm32f4\adalib\\libgnat.a(a-tags.o)
                0x08002074                ada__tags__select_specific_data_elementIP
 .text.ada__tags__select_specific_data_arrayIP
                0x08002078        0x4 C:\gnat\2017\arm-eabi\lib\gnat\ravenscar-full-stm32f4\adalib\\libgnat.a(a-tags.o)
                0x08002078                ada__tags__select_specific_data_arrayIP
 .text.ada__tags__select_specific_dataIP
                0x0800207c        0x4 C:\gnat\2017\arm-eabi\lib\gnat\ravenscar-full-stm32f4\adalib\\libgnat.a(a-tags.o)
                0x0800207c                ada__tags__select_specific_dataIP
 .text.ada__tags__address_arrayIP
                0x08002080       0x20 C:\gnat\2017\arm-eabi\lib\gnat\ravenscar-full-stm32f4\adalib\\libgnat.a(a-tags.o)
                0x08002080                ada__tags__address_arrayIP
 .text.ada__tags__tag_tableIP
                0x080020a0       0x20 C:\gnat\2017\arm-eabi\lib\gnat\ravenscar-full-stm32f4\adalib\\libgnat.a(a-tags.o)
                0x080020a0                ada__tags__tag_tableIP
 .text.ada__tags__type_specific_dataIP
                0x080020c0       0x28 C:\gnat\2017\arm-eabi\lib\gnat\ravenscar-full-stm32f4\adalib\\libgnat.a(a-tags.o)
                0x080020c0                ada__tags__type_specific_dataIP
 .text.ada__tags__dispatch_table_wrapperIP
                0x080020e8       0x18 C:\gnat\2017\arm-eabi\lib\gnat\ravenscar-full-stm32f4\adalib\\libgnat.a(a-tags.o)
                0x080020e8                ada__tags__dispatch_table_wrapperIP
 .text.ada__tags__no_dispatch_table_wrapperIP
                0x08002100        0x4 C:\gnat\2017\arm-eabi\lib\gnat\ravenscar-full-stm32f4\adalib\\libgnat.a(a-tags.o)
                0x08002100                ada__tags__no_dispatch_table_wrapperIP
 .text.ada__tags__object_specific_data_arrayIP
                0x08002104        0x4 C:\gnat\2017\arm-eabi\lib\gnat\ravenscar-full-stm32f4\adalib\\libgnat.a(a-tags.o)
                0x08002104                ada__tags__object_specific_data_arrayIP
 .text.ada__tags__object_specific_dataIP
                0x08002108        0x4 C:\gnat\2017\arm-eabi\lib\gnat\ravenscar-full-stm32f4\adalib\\libgnat.a(a-tags.o)
                0x08002108                ada__tags__object_specific_dataIP
 .text.ada__tags__external_tag_htable__TtableBIPXn
                0x0800210c       0x24 C:\gnat\2017\arm-eabi\lib\gnat\ravenscar-full-stm32f4\adalib\\libgnat.a(a-tags.o)
                0x0800210c                ada__tags__external_tag_htable__TtableBIPXn
 .text.ada__tags__external_tag_htable__get_firstXn
                0x08002130       0x50 C:\gnat\2017\arm-eabi\lib\gnat\ravenscar-full-stm32f4\adalib\\libgnat.a(a-tags.o)
                0x08002130                ada__tags__external_tag_htable__get_firstXn
 .text.ada__tags__external_tag_htable__get_nextXn
                0x08002180       0x74 C:\gnat\2017\arm-eabi\lib\gnat\ravenscar-full-stm32f4\adalib\\libgnat.a(a-tags.o)
                0x08002180                ada__tags__external_tag_htable__get_nextXn
 .text.ada__tags__external_tag_htable__get_non_nullXn
                0x080021f4       0x64 C:\gnat\2017\arm-eabi\lib\gnat\ravenscar-full-stm32f4\adalib\\libgnat.a(a-tags.o)
                0x080021f4                ada__tags__external_tag_htable__get_non_nullXn
 .text.ada__tags__external_tag_htable__resetXn
                0x08002258       0x18 C:\gnat\2017\arm-eabi\lib\gnat\ravenscar-full-stm32f4\adalib\\libgnat.a(a-tags.o)
                0x08002258                ada__tags__external_tag_htable__resetXn
 .text.ada__tags__htable_subprograms__equalXn
                0x08002270       0x28 C:\gnat\2017\arm-eabi\lib\gnat\ravenscar-full-stm32f4\adalib\\libgnat.a(a-tags.o)
                0x08002270                ada__tags__htable_subprograms__equalXn
 .text.ada__tags__htable_subprograms__get_ht_linkXn
                0x08002298        0xc C:\gnat\2017\arm-eabi\lib\gnat\ravenscar-full-stm32f4\adalib\\libgnat.a(a-tags.o)
                0x08002298                ada__tags__htable_subprograms__get_ht_linkXn
 .text.ada__tags__htable_subprograms__hashXn
                0x080022a4       0x40 C:\gnat\2017\arm-eabi\lib\gnat\ravenscar-full-stm32f4\adalib\\libgnat.a(a-tags.o)
                0x080022a4                ada__tags__htable_subprograms__hashXn
 .text.ada__tags__external_tag_htable__getXn
                0x080022e4       0x48 C:\gnat\2017\arm-eabi\lib\gnat\ravenscar-full-stm32f4\adalib\\libgnat.a(a-tags.o)
                0x080022e4                ada__tags__external_tag_htable__getXn
 .text.ada__tags__external_tag_htable__presentXn
                0x0800232c       0x10 C:\gnat\2017\arm-eabi\lib\gnat\ravenscar-full-stm32f4\adalib\\libgnat.a(a-tags.o)
                0x0800232c                ada__tags__external_tag_htable__presentXn
 .text.ada__tags__external_tag_htable__removeXn
                0x0800233c       0x88 C:\gnat\2017\arm-eabi\lib\gnat\ravenscar-full-stm32f4\adalib\\libgnat.a(a-tags.o)
                0x0800233c                ada__tags__external_tag_htable__removeXn
 .text.ada__tags__external_tag_htable__setXn
                0x080023c4       0x28 C:\gnat\2017\arm-eabi\lib\gnat\ravenscar-full-stm32f4\adalib\\libgnat.a(a-tags.o)
                0x080023c4                ada__tags__external_tag_htable__setXn
 .text.ada__tags__external_tag_htable__set_if_not_presentXn
                0x080023ec       0x74 C:\gnat\2017\arm-eabi\lib\gnat\ravenscar-full-stm32f4\adalib\\libgnat.a(a-tags.o)
                0x080023ec                ada__tags__external_tag_htable__set_if_not_presentXn
 .text.ada__tags__htable_subprograms__set_ht_linkXn
                0x08002460        0xc C:\gnat\2017\arm-eabi\lib\gnat\ravenscar-full-stm32f4\adalib\\libgnat.a(a-tags.o)
                0x08002460                ada__tags__htable_subprograms__set_ht_linkXn
 .text.ada__tags__is_abstract
                0x0800246c       0x20 C:\gnat\2017\arm-eabi\lib\gnat\ravenscar-full-stm32f4\adalib\\libgnat.a(a-tags.o)
                0x0800246c                ada__tags__is_abstract
 .text.ada__tags__base_address
                0x0800248c       0x14 C:\gnat\2017\arm-eabi\lib\gnat\ravenscar-full-stm32f4\adalib\\libgnat.a(a-tags.o)
                0x0800248c                ada__tags__base_address
 .text.ada__tags__check_tsd
                0x080024a0       0x90 C:\gnat\2017\arm-eabi\lib\gnat\ravenscar-full-stm32f4\adalib\\libgnat.a(a-tags.o)
                0x080024a0                ada__tags__check_tsd
 .text.ada__tags__displace
                0x08002530       0x8c C:\gnat\2017\arm-eabi\lib\gnat\ravenscar-full-stm32f4\adalib\\libgnat.a(a-tags.o)
                0x08002530                ada__tags__displace
 .text.ada__tags__dt
                0x080025bc        0x4 C:\gnat\2017\arm-eabi\lib\gnat\ravenscar-full-stm32f4\adalib\\libgnat.a(a-tags.o)
                0x080025bc                ada__tags__dt
 .text.ada__tags__iw_membership
                0x080025c0       0x1c C:\gnat\2017\arm-eabi\lib\gnat\ravenscar-full-stm32f4\adalib\\libgnat.a(a-tags.o)
                0x080025c0                ada__tags__iw_membership
 .text.ada__tags__expanded_name
                0x080025dc       0x70 C:\gnat\2017\arm-eabi\lib\gnat\ravenscar-full-stm32f4\adalib\\libgnat.a(a-tags.o)
                0x080025dc                ada__tags__expanded_name
 .text.ada__tags__external_tag
                0x0800264c       0x70 C:\gnat\2017\arm-eabi\lib\gnat\ravenscar-full-stm32f4\adalib\\libgnat.a(a-tags.o)
                0x0800264c                ada__tags__external_tag
 .text.ada__tags__get_entry_index
                0x080026bc       0x10 C:\gnat\2017\arm-eabi\lib\gnat\ravenscar-full-stm32f4\adalib\\libgnat.a(a-tags.o)
                0x080026bc                ada__tags__get_entry_index
 .text.ada__tags__get_prim_op_kind
                0x080026cc        0xc C:\gnat\2017\arm-eabi\lib\gnat\ravenscar-full-stm32f4\adalib\\libgnat.a(a-tags.o)
                0x080026cc                ada__tags__get_prim_op_kind
 .text.ada__tags__get_offset_index
                0x080026d8       0x14 C:\gnat\2017\arm-eabi\lib\gnat\ravenscar-full-stm32f4\adalib\\libgnat.a(a-tags.o)
                0x080026d8                ada__tags__get_offset_index
 .text.ada__tags__get_tagged_kind
                0x080026ec        0x8 C:\gnat\2017\arm-eabi\lib\gnat\ravenscar-full-stm32f4\adalib\\libgnat.a(a-tags.o)
                0x080026ec                ada__tags__get_tagged_kind
 .text.ada__tags__interface_ancestor_tags
                0x080026f4       0x70 C:\gnat\2017\arm-eabi\lib\gnat\ravenscar-full-stm32f4\adalib\\libgnat.a(a-tags.o)
                0x080026f4                ada__tags__interface_ancestor_tags
 .text.ada__tags__internal_tag
                0x08002764      0x1b8 C:\gnat\2017\arm-eabi\lib\gnat\ravenscar-full-stm32f4\adalib\\libgnat.a(a-tags.o)
                0x08002764                ada__tags__internal_tag
 .text.ada__tags__is_descendant_at_same_level
                0x0800291c       0x40 C:\gnat\2017\arm-eabi\lib\gnat\ravenscar-full-stm32f4\adalib\\libgnat.a(a-tags.o)
                0x0800291c                ada__tags__is_descendant_at_same_level
 .text.ada__tags__descendant_tag
                0x0800295c       0x2c C:\gnat\2017\arm-eabi\lib\gnat\ravenscar-full-stm32f4\adalib\\libgnat.a(a-tags.o)
                0x0800295c                ada__tags__descendant_tag
 .text.ada__tags__offset_to_top
                0x08002988       0x14 C:\gnat\2017\arm-eabi\lib\gnat\ravenscar-full-stm32f4\adalib\\libgnat.a(a-tags.o)
                0x08002988                ada__tags__offset_to_top
 .text.ada__tags__needs_finalization
                0x0800299c        0x8 C:\gnat\2017\arm-eabi\lib\gnat\ravenscar-full-stm32f4\adalib\\libgnat.a(a-tags.o)
                0x0800299c                ada__tags__needs_finalization
 .text.ada__tags__parent_size
                0x080029a4       0x14 C:\gnat\2017\arm-eabi\lib\gnat\ravenscar-full-stm32f4\adalib\\libgnat.a(a-tags.o)
                0x080029a4                ada__tags__parent_size
 .text.ada__tags__parent_tag
                0x080029b8       0x24 C:\gnat\2017\arm-eabi\lib\gnat\ravenscar-full-stm32f4\adalib\\libgnat.a(a-tags.o)
                0x080029b8                ada__tags__parent_tag
 .text.ada__tags__register_interface_offset
                0x080029dc       0x60 C:\gnat\2017\arm-eabi\lib\gnat\ravenscar-full-stm32f4\adalib\\libgnat.a(a-tags.o)
                0x080029dc                ada__tags__register_interface_offset
 .text.ada__tags__register_tag
                0x08002a3c        0x4 C:\gnat\2017\arm-eabi\lib\gnat\ravenscar-full-stm32f4\adalib\\libgnat.a(a-tags.o)
                0x08002a3c                ada__tags__register_tag
 .text.ada__tags__secondary_tag
                0x08002a40       0x54 C:\gnat\2017\arm-eabi\lib\gnat\ravenscar-full-stm32f4\adalib\\libgnat.a(a-tags.o)
                0x08002a40                ada__tags__secondary_tag
 .text.ada__tags__set_entry_index
                0x08002a94       0x10 C:\gnat\2017\arm-eabi\lib\gnat\ravenscar-full-stm32f4\adalib\\libgnat.a(a-tags.o)
                0x08002a94                ada__tags__set_entry_index
 .text.ada__tags__set_dynamic_offset_to_top
                0x08002aa4       0x20 C:\gnat\2017\arm-eabi\lib\gnat\ravenscar-full-stm32f4\adalib\\libgnat.a(a-tags.o)
                0x08002aa4                ada__tags__set_dynamic_offset_to_top
 .text.ada__tags__set_prim_op_kind
                0x08002ac4        0xc C:\gnat\2017\arm-eabi\lib\gnat\ravenscar-full-stm32f4\adalib\\libgnat.a(a-tags.o)
                0x08002ac4                ada__tags__set_prim_op_kind
 .text.ada__tags__unregister_tag
                0x08002ad0        0xc C:\gnat\2017\arm-eabi\lib\gnat\ravenscar-full-stm32f4\adalib\\libgnat.a(a-tags.o)
                0x08002ad0                ada__tags__unregister_tag
 .text.ada__tags__wide_expanded_name
                0x08002adc       0xa0 C:\gnat\2017\arm-eabi\lib\gnat\ravenscar-full-stm32f4\adalib\\libgnat.a(a-tags.o)
                0x08002adc                ada__tags__wide_expanded_name
 .text.ada__tags__wide_wide_expanded_name
                0x08002b7c       0x9c C:\gnat\2017\arm-eabi\lib\gnat\ravenscar-full-stm32f4\adalib\\libgnat.a(a-tags.o)
                0x08002b7c                ada__tags__wide_wide_expanded_name
 .text.ada__tags___elabb
                0x08002c18       0x18 C:\gnat\2017\arm-eabi\lib\gnat\ravenscar-full-stm32f4\adalib\\libgnat.a(a-tags.o)
                0x08002c18                ada__tags___elabb
 .text          0x08002c30        0x0 C:\gnat\2017\arm-eabi\lib\gnat\ravenscar-full-stm32f4\adalib\\libgnat.a(a-except.o)
 .text.ada__exceptions__exception_occurrenceIP
                0x08002c30       0x14 C:\gnat\2017\arm-eabi\lib\gnat\ravenscar-full-stm32f4\adalib\\libgnat.a(a-except.o)
                0x08002c30                ada__exceptions__exception_occurrenceIP
 .text.ada__exceptions__exception_data__append_info_addressXn
                0x08002c44       0x5c C:\gnat\2017\arm-eabi\lib\gnat\ravenscar-full-stm32f4\adalib\\libgnat.a(a-except.o)
                0x08002c44                ada__exceptions__exception_data__append_info_addressXn
 .text.ada__exceptions__exception_data__append_info_basic_exception_informationXn
                0x08002ca0       0xe8 C:\gnat\2017\arm-eabi\lib\gnat\ravenscar-full-stm32f4\adalib\\libgnat.a(a-except.o)
                0x08002ca0                ada__exceptions__exception_data__append_info_basic_exception_informationXn
 .text.ada__exceptions__exception_data__append_info_characterXn
                0x08002d88       0x24 C:\gnat\2017\arm-eabi\lib\gnat\ravenscar-full-stm32f4\adalib\\libgnat.a(a-except.o)
                0x08002d88                ada__exceptions__exception_data__append_info_characterXn
 .text.__gnat_append_info_e_msg
                0x08002dac       0x60 C:\gnat\2017\arm-eabi\lib\gnat\ravenscar-full-stm32f4\adalib\\libgnat.a(a-except.o)
                0x08002dac                __gnat_append_info_e_msg
 .text.ada__exceptions__exception_data__append_info_exception_nameXn
                0x08002e0c       0x5c C:\gnat\2017\arm-eabi\lib\gnat\ravenscar-full-stm32f4\adalib\\libgnat.a(a-except.o)
                0x08002e0c                ada__exceptions__exception_data__append_info_exception_nameXn
 .text.ada__exceptions__exception_data__append_info_exception_name__2Xn
                0x08002e68        0xc C:\gnat\2017\arm-eabi\lib\gnat\ravenscar-full-stm32f4\adalib\\libgnat.a(a-except.o)
                0x08002e68                Xn::ada__exceptions__exception_data__append_info_exception_name(void)
 .text.ada__exceptions__exception_data__exception_info_maxlengthXn
                0x08002e74       0x14 C:\gnat\2017\arm-eabi\lib\gnat\ravenscar-full-stm32f4\adalib\\libgnat.a(a-except.o)
                0x08002e74                ada__exceptions__exception_data__exception_info_maxlengthXn
 .text.ada__exceptions__exception_data__append_info_natXn
                0x08002e88       0x48 C:\gnat\2017\arm-eabi\lib\gnat\ravenscar-full-stm32f4\adalib\\libgnat.a(a-except.o)
                0x08002e88                ada__exceptions__exception_data__append_info_natXn
 .text.ada__exceptions__exception_data__append_info_nlXn
                0x08002ed0       0x10 C:\gnat\2017\arm-eabi\lib\gnat\ravenscar-full-stm32f4\adalib\\libgnat.a(a-except.o)
                0x08002ed0                ada__exceptions__exception_data__append_info_nlXn
 .text.ada__exceptions__exception_data__append_info_stringXn
                0x08002ee0       0x48 C:\gnat\2017\arm-eabi\lib\gnat\ravenscar-full-stm32f4\adalib\\libgnat.a(a-except.o)
                0x08002ee0                ada__exceptions__exception_data__append_info_stringXn
 .text.__gnat_append_info_u_e_info
                0x08002f28       0x1c C:\gnat\2017\arm-eabi\lib\gnat\ravenscar-full-stm32f4\adalib\\libgnat.a(a-except.o)
                0x08002f28                __gnat_append_info_u_e_info
 .text.ada__exceptions__exception_data__append_info_untailored_exception_tracebackXn
                0x08002f44       0xc8 C:\gnat\2017\arm-eabi\lib\gnat\ravenscar-full-stm32f4\adalib\\libgnat.a(a-except.o)
                0x08002f44                ada__exceptions__exception_data__append_info_untailored_exception_tracebackXn
 .text.ada__exceptions__exception_data__basic_exception_info_maxlengthXn
                0x0800300c       0x18 C:\gnat\2017\arm-eabi\lib\gnat\ravenscar-full-stm32f4\adalib\\libgnat.a(a-except.o)
                0x0800300c                ada__exceptions__exception_data__basic_exception_info_maxlengthXn
 .text.ada__exceptions__exception_data__exception_informationXn
                0x08003024       0xb8 C:\gnat\2017\arm-eabi\lib\gnat\ravenscar-full-stm32f4\adalib\\libgnat.a(a-except.o)
                0x08003024                ada__exceptions__exception_data__exception_informationXn
 .text.__gnat_exception_msg_len
                0x080030dc        0x4 C:\gnat\2017\arm-eabi\lib\gnat\ravenscar-full-stm32f4\adalib\\libgnat.a(a-except.o)
                0x080030dc                __gnat_exception_msg_len
 .text.ada__exceptions__exception_data__exception_name_lengthXn
                0x080030e0        0x8 C:\gnat\2017\arm-eabi\lib\gnat\ravenscar-full-stm32f4\adalib\\libgnat.a(a-except.o)
                0x080030e0                ada__exceptions__exception_data__exception_name_lengthXn
 .text.ada__exceptions__exception_data__exception_name_length__2Xn
                0x080030e8        0xc C:\gnat\2017\arm-eabi\lib\gnat\ravenscar-full-stm32f4\adalib\\libgnat.a(a-except.o)
                0x080030e8                Xn::ada__exceptions__exception_data__exception_name_length(void)
 .text.ada__exceptions__exception_data__untailored_exception_tracebackXn
                0x080030f4       0x68 C:\gnat\2017\arm-eabi\lib\gnat\ravenscar-full-stm32f4\adalib\\libgnat.a(a-except.o)
                0x080030f4                ada__exceptions__exception_data__untailored_exception_tracebackXn
 .text.ada__exceptions__exception_data__untailored_exception_informationXn
                0x0800315c       0x68 C:\gnat\2017\arm-eabi\lib\gnat\ravenscar-full-stm32f4\adalib\\libgnat.a(a-except.o)
                0x0800315c                ada__exceptions__exception_data__untailored_exception_informationXn
 .text.ada__exceptions__exception_data__set_exception_c_msg__append_number.6443
                0x080031c4       0x78 C:\gnat\2017\arm-eabi\lib\gnat\ravenscar-full-stm32f4\adalib\\libgnat.a(a-except.o)
 .text.ada__exceptions__exception_data__set_exception_c_msgXn
                0x0800323c       0xa4 C:\gnat\2017\arm-eabi\lib\gnat\ravenscar-full-stm32f4\adalib\\libgnat.a(a-except.o)
                0x0800323c                ada__exceptions__exception_data__set_exception_c_msgXn
 .text.ada__exceptions__exception_data__set_exception_msgXn
                0x080032e0       0x48 C:\gnat\2017\arm-eabi\lib\gnat\ravenscar-full-stm32f4\adalib\\libgnat.a(a-except.o)
                0x080032e0                ada__exceptions__exception_data__set_exception_msgXn
 .text.ada__exceptions__exception_data__tailored_exception_tracebackXn
                0x08003328       0x38 C:\gnat\2017\arm-eabi\lib\gnat\ravenscar-full-stm32f4\adalib\\libgnat.a(a-except.o)
                0x08003328                ada__exceptions__exception_data__tailored_exception_tracebackXn
 .text.ada__exceptions__exception_data__untailored_exception_traceback_maxlengthXn
                0x08003360       0x10 C:\gnat\2017\arm-eabi\lib\gnat\ravenscar-full-stm32f4\adalib\\libgnat.a(a-except.o)
                0x08003360                ada__exceptions__exception_data__untailored_exception_traceback_maxlengthXn
 .text.ada__exceptions__exception_propagation__allocate_occurrenceXn
                0x08003370       0x14 C:\gnat\2017\arm-eabi\lib\gnat\ravenscar-full-stm32f4\adalib\\libgnat.a(a-except.o)
                0x08003370                ada__exceptions__exception_propagation__allocate_occurrenceXn
 .text.ada__exceptions__exception_propagation__gnat_gcc_exception_cleanupXn
                0x08003384       0x10 C:\gnat\2017\arm-eabi\lib\gnat\ravenscar-full-stm32f4\adalib\\libgnat.a(a-except.o)
                0x08003384                ada__exceptions__exception_propagation__gnat_gcc_exception_cleanupXn
 .text.ada__exceptions__exception_propagation__set_foreign_occurrenceXn
                0x08003394       0x28 C:\gnat\2017\arm-eabi\lib\gnat\ravenscar-full-stm32f4\adalib\\libgnat.a(a-except.o)
                0x08003394                ada__exceptions__exception_propagation__set_foreign_occurrenceXn
 .text.__gnat_setup_current_excep
                0x080033bc       0x38 C:\gnat\2017\arm-eabi\lib\gnat\ravenscar-full-stm32f4\adalib\\libgnat.a(a-except.o)
                0x080033bc                __gnat_setup_current_excep
 .text.__gnat_begin_handler
                0x080033f4        0x4 C:\gnat\2017\arm-eabi\lib\gnat\ravenscar-full-stm32f4\adalib\\libgnat.a(a-except.o)
                0x080033f4                __gnat_begin_handler
 .text.__gnat_end_handler
                0x080033f8        0xc C:\gnat\2017\arm-eabi\lib\gnat\ravenscar-full-stm32f4\adalib\\libgnat.a(a-except.o)
                0x080033f8                __gnat_end_handler
 .text.__gnat_reraise_zcx
                0x08003404        0x8 C:\gnat\2017\arm-eabi\lib\gnat\ravenscar-full-stm32f4\adalib\\libgnat.a(a-except.o)
                0x08003404                __gnat_reraise_zcx
 .text.ada__exceptions__exception_propagation__propagate_gcc_exceptionXn
                0x0800340c       0x28 C:\gnat\2017\arm-eabi\lib\gnat\ravenscar-full-stm32f4\adalib\\libgnat.a(a-except.o)
                0x0800340c                ada__exceptions__exception_propagation__propagate_gcc_exceptionXn
 .text.ada__exceptions__exception_propagation__propagate_exceptionXn
                0x08003434        0x8 C:\gnat\2017\arm-eabi\lib\gnat\ravenscar-full-stm32f4\adalib\\libgnat.a(a-except.o)
                0x08003434                ada__exceptions__exception_propagation__propagate_exceptionXn
 .text.__gnat_set_exception_parameter
                0x0800343c       0x2c C:\gnat\2017\arm-eabi\lib\gnat\ravenscar-full-stm32f4\adalib\\libgnat.a(a-except.o)
                0x0800343c                __gnat_set_exception_parameter
 .text.__gnat_unhandled_except_handler
                0x08003468        0xc C:\gnat\2017\arm-eabi\lib\gnat\ravenscar-full-stm32f4\adalib\\libgnat.a(a-except.o)
                0x08003468                __gnat_unhandled_except_handler
 .text.__gnat_eid_for
                0x08003474        0x4 C:\gnat\2017\arm-eabi\lib\gnat\ravenscar-full-stm32f4\adalib\\libgnat.a(a-except.o)
                0x08003474                __gnat_eid_for
 .text.__gnat_foreign_data_for
                0x08003478        0x4 C:\gnat\2017\arm-eabi\lib\gnat\ravenscar-full-stm32f4\adalib\\libgnat.a(a-except.o)
                0x08003478                __gnat_foreign_data_for
 .text.__gnat_is_handled_by_others
                0x0800347c        0x8 C:\gnat\2017\arm-eabi\lib\gnat\ravenscar-full-stm32f4\adalib\\libgnat.a(a-except.o)
                0x0800347c                __gnat_is_handled_by_others
 .text.__gnat_language_for
                0x08003484        0x4 C:\gnat\2017\arm-eabi\lib\gnat\ravenscar-full-stm32f4\adalib\\libgnat.a(a-except.o)
                0x08003484                __gnat_language_for
 .text.ada__exceptions__exception_traces__notify_exception__B277b___finalizerXn.6702
                0x08003488        0xc C:\gnat\2017\arm-eabi\lib\gnat\ravenscar-full-stm32f4\adalib\\libgnat.a(a-except.o)
 .text.ada__exceptions__exception_traces__notify_exceptionXn
                0x08003494      0x108 C:\gnat\2017\arm-eabi\lib\gnat\ravenscar-full-stm32f4\adalib\\libgnat.a(a-except.o)
                0x08003494                ada__exceptions__exception_traces__notify_exceptionXn
 .text.__gnat_notify_handled_exception
                0x0800359c        0xc C:\gnat\2017\arm-eabi\lib\gnat\ravenscar-full-stm32f4\adalib\\libgnat.a(a-except.o)
                0x0800359c                __gnat_notify_handled_exception
 .text.__gnat_notify_unhandled_exception
                0x080035a8       0x20 C:\gnat\2017\arm-eabi\lib\gnat\ravenscar-full-stm32f4\adalib\\libgnat.a(a-except.o)
                0x080035a8                __gnat_notify_unhandled_exception
 .text.ada__exceptions__exception_traces__unhandled_exception_terminateXn
                0x080035c8       0x1c C:\gnat\2017\arm-eabi\lib\gnat\ravenscar-full-stm32f4\adalib\\libgnat.a(a-except.o)
                0x080035c8                ada__exceptions__exception_traces__unhandled_exception_terminateXn
 .text.ada__exceptions__stream_attributes__eid_to_stringXn
                0x080035e4       0x34 C:\gnat\2017\arm-eabi\lib\gnat\ravenscar-full-stm32f4\adalib\\libgnat.a(a-except.o)
                0x080035e4                ada__exceptions__stream_attributes__eid_to_stringXn
 .text.ada__exceptions__stream_attributes__eo_to_stringXn
                0x08003618       0x38 C:\gnat\2017\arm-eabi\lib\gnat\ravenscar-full-stm32f4\adalib\\libgnat.a(a-except.o)
                0x08003618                ada__exceptions__stream_attributes__eo_to_stringXn
 .text.ada__exceptions__stream_attributes__string_to_eidXn
                0x08003650       0x18 C:\gnat\2017\arm-eabi\lib\gnat\ravenscar-full-stm32f4\adalib\\libgnat.a(a-except.o)
                0x08003650                ada__exceptions__stream_attributes__string_to_eidXn
 .text.ada__exceptions__stream_attributes__string_to_eo__bad_eo.6747
                0x08003668       0x18 C:\gnat\2017\arm-eabi\lib\gnat\ravenscar-full-stm32f4\adalib\\libgnat.a(a-except.o)
 .text.ada__exceptions__stream_attributes__string_to_eoXn
                0x08003680      0x270 C:\gnat\2017\arm-eabi\lib\gnat\ravenscar-full-stm32f4\adalib\\libgnat.a(a-except.o)
                0x08003680                ada__exceptions__stream_attributes__string_to_eoXn
 .text.ada__exceptions__stream_attributes__string_to_eo__next_string.6749
                0x080038f0       0x64 C:\gnat\2017\arm-eabi\lib\gnat\ravenscar-full-stm32f4\adalib\\libgnat.a(a-except.o)
 .text.ada__exceptions__poll
                0x08003954        0x4 C:\gnat\2017\arm-eabi\lib\gnat\ravenscar-full-stm32f4\adalib\\libgnat.a(a-except.o)
                0x08003954                ada__exceptions__poll
 .text.ada__exceptions__code_address_for_aaa
                0x08003958        0x8 C:\gnat\2017\arm-eabi\lib\gnat\ravenscar-full-stm32f4\adalib\\libgnat.a(a-except.o)
                0x08003958                ada__exceptions__code_address_for_aaa
 .text.ada__exceptions__call_chain
                0x08003960       0x4c C:\gnat\2017\arm-eabi\lib\gnat\ravenscar-full-stm32f4\adalib\\libgnat.a(a-except.o)
                0x08003960                ada__exceptions__call_chain
 .text.ada__exceptions__eid_to_string
                0x080039ac       0x1c C:\gnat\2017\arm-eabi\lib\gnat\ravenscar-full-stm32f4\adalib\\libgnat.a(a-except.o)
                0x080039ac                ada__exceptions__eid_to_string
 .text.ada__exceptions__eo_to_string
                0x080039c8       0x1c C:\gnat\2017\arm-eabi\lib\gnat\ravenscar-full-stm32f4\adalib\\libgnat.a(a-except.o)
                0x080039c8                ada__exceptions__eo_to_string
 .text.ada__exceptions__exception_identity
                0x080039e4        0x4 C:\gnat\2017\arm-eabi\lib\gnat\ravenscar-full-stm32f4\adalib\\libgnat.a(a-except.o)
                0x080039e4                ada__exceptions__exception_identity
 .text.ada__exceptions__exception_information
                0x080039e8       0x2c C:\gnat\2017\arm-eabi\lib\gnat\ravenscar-full-stm32f4\adalib\\libgnat.a(a-except.o)
                0x080039e8                ada__exceptions__exception_information
 .text.ada__exceptions__exception_message
                0x08003a14       0x54 C:\gnat\2017\arm-eabi\lib\gnat\ravenscar-full-stm32f4\adalib\\libgnat.a(a-except.o)
                0x08003a14                ada__exceptions__exception_message
 .text.ada__exceptions__exception_name
                0x08003a68       0x4c C:\gnat\2017\arm-eabi\lib\gnat\ravenscar-full-stm32f4\adalib\\libgnat.a(a-except.o)
                0x08003a68                ada__exceptions__exception_name
 .text.ada__exceptions__exception_name__2
                0x08003ab4       0x1c C:\gnat\2017\arm-eabi\lib\gnat\ravenscar-full-stm32f4\adalib\\libgnat.a(a-except.o)
                0x08003ab4                ada__exceptions__exception_name__2
 .text.ada__exceptions__exception_name_simple
                0x08003ad0       0x8c C:\gnat\2017\arm-eabi\lib\gnat\ravenscar-full-stm32f4\adalib\\libgnat.a(a-except.o)
                0x08003ad0                ada__exceptions__exception_name_simple
 .text.__gnat_get_exception_machine_occurrence
                0x08003b5c        0x4 C:\gnat\2017\arm-eabi\lib\gnat\ravenscar-full-stm32f4\adalib\\libgnat.a(a-except.o)
                0x08003b5c                __gnat_get_exception_machine_occurrence
 .text.ada__exceptions__image
                0x08003b60       0x88 C:\gnat\2017\arm-eabi\lib\gnat\ravenscar-full-stm32f4\adalib\\libgnat.a(a-except.o)
                0x08003b60                ada__exceptions__image
 .text.__gnat_raise_constraint_error
                0x08003be8       0x18 C:\gnat\2017\arm-eabi\lib\gnat\ravenscar-full-stm32f4\adalib\\libgnat.a(a-except.o)
                0x08003be8                __gnat_raise_constraint_error
 .text.__gnat_raise_constraint_error_msg
                0x08003c00       0x18 C:\gnat\2017\arm-eabi\lib\gnat\ravenscar-full-stm32f4\adalib\\libgnat.a(a-except.o)
                0x08003c00                __gnat_raise_constraint_error_msg
 .text.ada__exceptions__complete_occurrence
                0x08003c18       0x24 C:\gnat\2017\arm-eabi\lib\gnat\ravenscar-full-stm32f4\adalib\\libgnat.a(a-except.o)
                0x08003c18                ada__exceptions__complete_occurrence
 .text.ada__exceptions__complete_and_propagate_occurrence
                0x08003c3c       0x10 C:\gnat\2017\arm-eabi\lib\gnat\ravenscar-full-stm32f4\adalib\\libgnat.a(a-except.o)
                0x08003c3c                ada__exceptions__complete_and_propagate_occurrence
 .text.ada__exceptions__raise_exception
                0x08003c4c       0x14 C:\gnat\2017\arm-eabi\lib\gnat\ravenscar-full-stm32f4\adalib\\libgnat.a(a-except.o)
                0x08003c4c                ada__exceptions__raise_exception
 .text.__gnat_raise_exception
                0x08003c60       0x20 C:\gnat\2017\arm-eabi\lib\gnat\ravenscar-full-stm32f4\adalib\\libgnat.a(a-except.o)
                0x08003c60                __gnat_raise_exception
 .text.ada__exceptions__raise_exception_no_defer
                0x08003c80       0x20 C:\gnat\2017\arm-eabi\lib\gnat\ravenscar-full-stm32f4\adalib\\libgnat.a(a-except.o)
                0x08003c80                ada__exceptions__raise_exception_no_defer
 .text.ada__exceptions__raise_from_controlled_operation___finalizer.6963
                0x08003ca0        0xc C:\gnat\2017\arm-eabi\lib\gnat\ravenscar-full-stm32f4\adalib\\libgnat.a(a-except.o)
 .text.__gnat_raise_from_controlled_operation
                0x08003cac      0x180 C:\gnat\2017\arm-eabi\lib\gnat\ravenscar-full-stm32f4\adalib\\libgnat.a(a-except.o)
                0x08003cac                __gnat_raise_from_controlled_operation
 .text.ada__exceptions__raise_from_controlled_operation__B_3___finalizer.6998
                0x08003e2c        0xc C:\gnat\2017\arm-eabi\lib\gnat\ravenscar-full-stm32f4\adalib\\libgnat.a(a-except.o)
 .text.ada__exceptions__create_occurrence_from_signal_handler
                0x08003e38       0x28 C:\gnat\2017\arm-eabi\lib\gnat\ravenscar-full-stm32f4\adalib\\libgnat.a(a-except.o)
                0x08003e38                ada__exceptions__create_occurrence_from_signal_handler
 .text.__gnat_create_machine_occurrence_from_signal_handler
                0x08003e60        0xc C:\gnat\2017\arm-eabi\lib\gnat\ravenscar-full-stm32f4\adalib\\libgnat.a(a-except.o)
                0x08003e60                __gnat_create_machine_occurrence_from_signal_handler
 .text.ada__exceptions__raise_from_signal_handler
                0x08003e6c        0xc C:\gnat\2017\arm-eabi\lib\gnat\ravenscar-full-stm32f4\adalib\\libgnat.a(a-except.o)
                0x08003e6c                ada__exceptions__raise_from_signal_handler
 .text.__gnat_raise_program_error
                0x08003e78       0x18 C:\gnat\2017\arm-eabi\lib\gnat\ravenscar-full-stm32f4\adalib\\libgnat.a(a-except.o)
                0x08003e78                __gnat_raise_program_error
 .text.__gnat_raise_program_error_msg
                0x08003e90       0x18 C:\gnat\2017\arm-eabi\lib\gnat\ravenscar-full-stm32f4\adalib\\libgnat.a(a-except.o)
                0x08003e90                __gnat_raise_program_error_msg
 .text.__gnat_raise_storage_error
                0x08003ea8       0x18 C:\gnat\2017\arm-eabi\lib\gnat\ravenscar-full-stm32f4\adalib\\libgnat.a(a-except.o)
                0x08003ea8                __gnat_raise_storage_error
 .text.__gnat_raise_storage_error_msg
                0x08003ec0       0x18 C:\gnat\2017\arm-eabi\lib\gnat\ravenscar-full-stm32f4\adalib\\libgnat.a(a-except.o)
                0x08003ec0                __gnat_raise_storage_error_msg
 .text.ada__exceptions__raise_with_location_and_msg
                0x08003ed8       0x2c C:\gnat\2017\arm-eabi\lib\gnat\ravenscar-full-stm32f4\adalib\\libgnat.a(a-except.o)
                0x08003ed8                ada__exceptions__raise_with_location_and_msg
 .text.__gnat_raise_with_msg
                0x08003f04       0x40 C:\gnat\2017\arm-eabi\lib\gnat\ravenscar-full-stm32f4\adalib\\libgnat.a(a-except.o)
                0x08003f04                __gnat_raise_with_msg
 .text.__gnat_rcheck_CE_Access_Check
                0x08003f44       0x10 C:\gnat\2017\arm-eabi\lib\gnat\ravenscar-full-stm32f4\adalib\\libgnat.a(a-except.o)
                0x08003f44                __gnat_rcheck_CE_Access_Check
 .text.__gnat_rcheck_CE_Null_Access_Parameter
                0x08003f54       0x10 C:\gnat\2017\arm-eabi\lib\gnat\ravenscar-full-stm32f4\adalib\\libgnat.a(a-except.o)
                0x08003f54                __gnat_rcheck_CE_Null_Access_Parameter
 .text.__gnat_rcheck_CE_Discriminant_Check
                0x08003f64       0x10 C:\gnat\2017\arm-eabi\lib\gnat\ravenscar-full-stm32f4\adalib\\libgnat.a(a-except.o)
                0x08003f64                __gnat_rcheck_CE_Discriminant_Check
 .text.__gnat_rcheck_CE_Divide_By_Zero
                0x08003f74       0x10 C:\gnat\2017\arm-eabi\lib\gnat\ravenscar-full-stm32f4\adalib\\libgnat.a(a-except.o)
                0x08003f74                __gnat_rcheck_CE_Divide_By_Zero
 .text.__gnat_rcheck_CE_Explicit_Raise
                0x08003f84       0x10 C:\gnat\2017\arm-eabi\lib\gnat\ravenscar-full-stm32f4\adalib\\libgnat.a(a-except.o)
                0x08003f84                __gnat_rcheck_CE_Explicit_Raise
 .text.__gnat_rcheck_CE_Index_Check
                0x08003f94       0x10 C:\gnat\2017\arm-eabi\lib\gnat\ravenscar-full-stm32f4\adalib\\libgnat.a(a-except.o)
                0x08003f94                __gnat_rcheck_CE_Index_Check
 .text.__gnat_rcheck_CE_Invalid_Data
                0x08003fa4       0x10 C:\gnat\2017\arm-eabi\lib\gnat\ravenscar-full-stm32f4\adalib\\libgnat.a(a-except.o)
                0x08003fa4                __gnat_rcheck_CE_Invalid_Data
 .text.__gnat_rcheck_CE_Length_Check
                0x08003fb4       0x10 C:\gnat\2017\arm-eabi\lib\gnat\ravenscar-full-stm32f4\adalib\\libgnat.a(a-except.o)
                0x08003fb4                __gnat_rcheck_CE_Length_Check
 .text.__gnat_rcheck_CE_Null_Exception_Id
                0x08003fc4       0x10 C:\gnat\2017\arm-eabi\lib\gnat\ravenscar-full-stm32f4\adalib\\libgnat.a(a-except.o)
                0x08003fc4                __gnat_rcheck_CE_Null_Exception_Id
 .text.__gnat_rcheck_CE_Null_Not_Allowed
                0x08003fd4       0x10 C:\gnat\2017\arm-eabi\lib\gnat\ravenscar-full-stm32f4\adalib\\libgnat.a(a-except.o)
                0x08003fd4                __gnat_rcheck_CE_Null_Not_Allowed
 .text.__gnat_rcheck_CE_Overflow_Check
                0x08003fe4       0x10 C:\gnat\2017\arm-eabi\lib\gnat\ravenscar-full-stm32f4\adalib\\libgnat.a(a-except.o)
                0x08003fe4                __gnat_rcheck_CE_Overflow_Check
 .text.__gnat_rcheck_CE_Partition_Check
                0x08003ff4       0x10 C:\gnat\2017\arm-eabi\lib\gnat\ravenscar-full-stm32f4\adalib\\libgnat.a(a-except.o)
                0x08003ff4                __gnat_rcheck_CE_Partition_Check
 .text.__gnat_rcheck_CE_Range_Check
                0x08004004       0x10 C:\gnat\2017\arm-eabi\lib\gnat\ravenscar-full-stm32f4\adalib\\libgnat.a(a-except.o)
                0x08004004                __gnat_rcheck_CE_Range_Check
 .text.__gnat_rcheck_CE_Tag_Check
                0x08004014       0x10 C:\gnat\2017\arm-eabi\lib\gnat\ravenscar-full-stm32f4\adalib\\libgnat.a(a-except.o)
                0x08004014                __gnat_rcheck_CE_Tag_Check
 .text.__gnat_rcheck_PE_Access_Before_Elaboration
                0x08004024        0xc C:\gnat\2017\arm-eabi\lib\gnat\ravenscar-full-stm32f4\adalib\\libgnat.a(a-except.o)
                0x08004024                __gnat_rcheck_PE_Access_Before_Elaboration
 .text.__gnat_rcheck_PE_Accessibility_Check
                0x08004030        0xc C:\gnat\2017\arm-eabi\lib\gnat\ravenscar-full-stm32f4\adalib\\libgnat.a(a-except.o)
                0x08004030                __gnat_rcheck_PE_Accessibility_Check
 .text.__gnat_rcheck_PE_Address_Of_Intrinsic
                0x0800403c        0xc C:\gnat\2017\arm-eabi\lib\gnat\ravenscar-full-stm32f4\adalib\\libgnat.a(a-except.o)
                0x0800403c                __gnat_rcheck_PE_Address_Of_Intrinsic
 .text.__gnat_rcheck_PE_Aliased_Parameters
                0x08004048        0xc C:\gnat\2017\arm-eabi\lib\gnat\ravenscar-full-stm32f4\adalib\\libgnat.a(a-except.o)
                0x08004048                __gnat_rcheck_PE_Aliased_Parameters
 .text.__gnat_rcheck_PE_All_Guards_Closed
                0x08004054        0xc C:\gnat\2017\arm-eabi\lib\gnat\ravenscar-full-stm32f4\adalib\\libgnat.a(a-except.o)
                0x08004054                __gnat_rcheck_PE_All_Guards_Closed
 .text.__gnat_rcheck_PE_Bad_Predicated_Generic_Type
                0x08004060        0xc C:\gnat\2017\arm-eabi\lib\gnat\ravenscar-full-stm32f4\adalib\\libgnat.a(a-except.o)
                0x08004060                __gnat_rcheck_PE_Bad_Predicated_Generic_Type
 .text.__gnat_rcheck_PE_Current_Task_In_Entry_Body
                0x0800406c        0xc C:\gnat\2017\arm-eabi\lib\gnat\ravenscar-full-stm32f4\adalib\\libgnat.a(a-except.o)
                0x0800406c                __gnat_rcheck_PE_Current_Task_In_Entry_Body
 .text.__gnat_rcheck_PE_Duplicated_Entry_Address
                0x08004078        0xc C:\gnat\2017\arm-eabi\lib\gnat\ravenscar-full-stm32f4\adalib\\libgnat.a(a-except.o)
                0x08004078                __gnat_rcheck_PE_Duplicated_Entry_Address
 .text.__gnat_rcheck_PE_Explicit_Raise
                0x08004084        0xc C:\gnat\2017\arm-eabi\lib\gnat\ravenscar-full-stm32f4\adalib\\libgnat.a(a-except.o)
                0x08004084                __gnat_rcheck_PE_Explicit_Raise
 .text.__gnat_rcheck_PE_Implicit_Return
                0x08004090        0xc C:\gnat\2017\arm-eabi\lib\gnat\ravenscar-full-stm32f4\adalib\\libgnat.a(a-except.o)
                0x08004090                __gnat_rcheck_PE_Implicit_Return
 .text.__gnat_rcheck_PE_Misaligned_Address_Value
                0x0800409c        0xc C:\gnat\2017\arm-eabi\lib\gnat\ravenscar-full-stm32f4\adalib\\libgnat.a(a-except.o)
                0x0800409c                __gnat_rcheck_PE_Misaligned_Address_Value
 .text.__gnat_rcheck_PE_Missing_Return
                0x080040a8        0xc C:\gnat\2017\arm-eabi\lib\gnat\ravenscar-full-stm32f4\adalib\\libgnat.a(a-except.o)
                0x080040a8                __gnat_rcheck_PE_Missing_Return
 .text.__gnat_rcheck_PE_Non_Transportable_Actual
                0x080040b4        0xc C:\gnat\2017\arm-eabi\lib\gnat\ravenscar-full-stm32f4\adalib\\libgnat.a(a-except.o)
                0x080040b4                __gnat_rcheck_PE_Non_Transportable_Actual
 .text.__gnat_rcheck_PE_Overlaid_Controlled_Object
                0x080040c0        0xc C:\gnat\2017\arm-eabi\lib\gnat\ravenscar-full-stm32f4\adalib\\libgnat.a(a-except.o)
                0x080040c0                __gnat_rcheck_PE_Overlaid_Controlled_Object
 .text.__gnat_rcheck_PE_Potentially_Blocking_Operation
                0x080040cc        0xc C:\gnat\2017\arm-eabi\lib\gnat\ravenscar-full-stm32f4\adalib\\libgnat.a(a-except.o)
                0x080040cc                __gnat_rcheck_PE_Potentially_Blocking_Operation
 .text.__gnat_rcheck_PE_Stream_Operation_Not_Allowed
                0x080040d8        0xc C:\gnat\2017\arm-eabi\lib\gnat\ravenscar-full-stm32f4\adalib\\libgnat.a(a-except.o)
                0x080040d8                __gnat_rcheck_PE_Stream_Operation_Not_Allowed
 .text.__gnat_rcheck_PE_Stubbed_Subprogram_Called
                0x080040e4        0xc C:\gnat\2017\arm-eabi\lib\gnat\ravenscar-full-stm32f4\adalib\\libgnat.a(a-except.o)
                0x080040e4                __gnat_rcheck_PE_Stubbed_Subprogram_Called
 .text.__gnat_rcheck_PE_Unchecked_Union_Restriction
                0x080040f0        0xc C:\gnat\2017\arm-eabi\lib\gnat\ravenscar-full-stm32f4\adalib\\libgnat.a(a-except.o)
                0x080040f0                __gnat_rcheck_PE_Unchecked_Union_Restriction
 .text.__gnat_rcheck_SE_Empty_Storage_Pool
                0x080040fc        0xc C:\gnat\2017\arm-eabi\lib\gnat\ravenscar-full-stm32f4\adalib\\libgnat.a(a-except.o)
                0x080040fc                __gnat_rcheck_SE_Empty_Storage_Pool
 .text.__gnat_rcheck_SE_Explicit_Raise
                0x08004108        0xc C:\gnat\2017\arm-eabi\lib\gnat\ravenscar-full-stm32f4\adalib\\libgnat.a(a-except.o)
                0x08004108                __gnat_rcheck_SE_Explicit_Raise
 .text.__gnat_rcheck_SE_Infinite_Recursion
                0x08004114        0xc C:\gnat\2017\arm-eabi\lib\gnat\ravenscar-full-stm32f4\adalib\\libgnat.a(a-except.o)
                0x08004114                __gnat_rcheck_SE_Infinite_Recursion
 .text.__gnat_rcheck_SE_Object_Too_Large
                0x08004120        0xc C:\gnat\2017\arm-eabi\lib\gnat\ravenscar-full-stm32f4\adalib\\libgnat.a(a-except.o)
                0x08004120                __gnat_rcheck_SE_Object_Too_Large
 .text.__gnat_rcheck_CE_Access_Check_ext
                0x0800412c        0xc C:\gnat\2017\arm-eabi\lib\gnat\ravenscar-full-stm32f4\adalib\\libgnat.a(a-except.o)
                0x0800412c                __gnat_rcheck_CE_Access_Check_ext
 .text.ada__exceptions__rcheck_ce_index_check_ext___finalizer.7070
                0x08004138        0xc C:\gnat\2017\arm-eabi\lib\gnat\ravenscar-full-stm32f4\adalib\\libgnat.a(a-except.o)
 .text.__gnat_rcheck_CE_Index_Check_ext
                0x08004144      0x15c C:\gnat\2017\arm-eabi\lib\gnat\ravenscar-full-stm32f4\adalib\\libgnat.a(a-except.o)
                0x08004144                __gnat_rcheck_CE_Index_Check_ext
 .text.ada__exceptions__rcheck_ce_invalid_data_ext___finalizer.7145
                0x080042a0        0xc C:\gnat\2017\arm-eabi\lib\gnat\ravenscar-full-stm32f4\adalib\\libgnat.a(a-except.o)
 .text.__gnat_rcheck_CE_Invalid_Data_ext
                0x080042ac      0x154 C:\gnat\2017\arm-eabi\lib\gnat\ravenscar-full-stm32f4\adalib\\libgnat.a(a-except.o)
                0x080042ac                __gnat_rcheck_CE_Invalid_Data_ext
 .text.ada__exceptions__rcheck_ce_range_check_ext___finalizer.7220
                0x08004400        0xc C:\gnat\2017\arm-eabi\lib\gnat\ravenscar-full-stm32f4\adalib\\libgnat.a(a-except.o)
 .text.__gnat_rcheck_CE_Range_Check_ext
                0x0800440c      0x15c C:\gnat\2017\arm-eabi\lib\gnat\ravenscar-full-stm32f4\adalib\\libgnat.a(a-except.o)
                0x0800440c                __gnat_rcheck_CE_Range_Check_ext
 .text.__gnat_rcheck_PE_Finalize_Raised_Exception
                0x08004568       0x30 C:\gnat\2017\arm-eabi\lib\gnat\ravenscar-full-stm32f4\adalib\\libgnat.a(a-except.o)
                0x08004568                __gnat_rcheck_PE_Finalize_Raised_Exception
 .text.__gnat_reraise
                0x08004598       0x20 C:\gnat\2017\arm-eabi\lib\gnat\ravenscar-full-stm32f4\adalib\\libgnat.a(a-except.o)
                0x08004598                __gnat_reraise
 .text.__gnat_reraise_library_exception_if_any
                0x080045b8       0x4c C:\gnat\2017\arm-eabi\lib\gnat\ravenscar-full-stm32f4\adalib\\libgnat.a(a-except.o)
                0x080045b8                __gnat_reraise_library_exception_if_any
 .text.ada__exceptions__reraise_occurrence
                0x08004604        0xc C:\gnat\2017\arm-eabi\lib\gnat\ravenscar-full-stm32f4\adalib\\libgnat.a(a-except.o)
                0x08004604                ada__exceptions__reraise_occurrence
 .text.ada__exceptions__reraise_occurrence_always
                0x08004610        0x8 C:\gnat\2017\arm-eabi\lib\gnat\ravenscar-full-stm32f4\adalib\\libgnat.a(a-except.o)
                0x08004610                ada__exceptions__reraise_occurrence_always
 .text.ada__exceptions__reraise_occurrence_no_defer
                0x08004618       0x1c C:\gnat\2017\arm-eabi\lib\gnat\ravenscar-full-stm32f4\adalib\\libgnat.a(a-except.o)
                0x08004618                ada__exceptions__reraise_occurrence_no_defer
 .text.ada__exceptions__save_occurrence
                0x08004634       0x48 C:\gnat\2017\arm-eabi\lib\gnat\ravenscar-full-stm32f4\adalib\\libgnat.a(a-except.o)
                0x08004634                ada__exceptions__save_occurrence
 .text.ada__exceptions__save_occurrence__2
                0x0800467c       0x20 C:\gnat\2017\arm-eabi\lib\gnat\ravenscar-full-stm32f4\adalib\\libgnat.a(a-except.o)
                0x0800467c                ada__exceptions__save_occurrence__2
 .text.ada__exceptions__string_to_eid
                0x0800469c        0x8 C:\gnat\2017\arm-eabi\lib\gnat\ravenscar-full-stm32f4\adalib\\libgnat.a(a-except.o)
                0x0800469c                ada__exceptions__string_to_eid
 .text.ada__exceptions__string_to_eo
                0x080046a4        0xc C:\gnat\2017\arm-eabi\lib\gnat\ravenscar-full-stm32f4\adalib\\libgnat.a(a-except.o)
                0x080046a4                ada__exceptions__string_to_eo
 .text.__gnat_to_stderr_char
                0x080046b0        0x8 C:\gnat\2017\arm-eabi\lib\gnat\ravenscar-full-stm32f4\adalib\\libgnat.a(a-except.o)
                0x080046b0                __gnat_to_stderr_char
 .text.__gnat_to_stderr
                0x080046b8       0x28 C:\gnat\2017\arm-eabi\lib\gnat\ravenscar-full-stm32f4\adalib\\libgnat.a(a-except.o)
                0x080046b8                __gnat_to_stderr
 .text.__gnat_transfer_occurrence
                0x080046e0        0x8 C:\gnat\2017\arm-eabi\lib\gnat\ravenscar-full-stm32f4\adalib\\libgnat.a(a-except.o)
                0x080046e0                __gnat_transfer_occurrence
 .text.ada__exceptions__triggered_by_abort
                0x080046e8       0x20 C:\gnat\2017\arm-eabi\lib\gnat\ravenscar-full-stm32f4\adalib\\libgnat.a(a-except.o)
                0x080046e8                ada__exceptions__triggered_by_abort
 .text.ada__exceptions__wide_exception_name
                0x08004708       0xa0 C:\gnat\2017\arm-eabi\lib\gnat\ravenscar-full-stm32f4\adalib\\libgnat.a(a-except.o)
                0x08004708                ada__exceptions__wide_exception_name
 .text.ada__exceptions__wide_exception_name__2
                0x080047a8       0xa0 C:\gnat\2017\arm-eabi\lib\gnat\ravenscar-full-stm32f4\adalib\\libgnat.a(a-except.o)
                0x080047a8                ada__exceptions__wide_exception_name__2
 .text.ada__exceptions__wide_wide_exception_name
                0x08004848       0x9c C:\gnat\2017\arm-eabi\lib\gnat\ravenscar-full-stm32f4\adalib\\libgnat.a(a-except.o)
                0x08004848                ada__exceptions__wide_wide_exception_name
 .text.ada__exceptions__wide_wide_exception_name__2
                0x080048e4       0x9c C:\gnat\2017\arm-eabi\lib\gnat\ravenscar-full-stm32f4\adalib\\libgnat.a(a-except.o)
                0x080048e4                ada__exceptions__wide_wide_exception_name__2
 .text.ada__exceptions__code_address_for_zzz
                0x08004980        0x8 C:\gnat\2017\arm-eabi\lib\gnat\ravenscar-full-stm32f4\adalib\\libgnat.a(a-except.o)
                0x08004980                ada__exceptions__code_address_for_zzz
 .text          0x08004988        0x0 C:\gnat\2017\arm-eabi\lib\gnat\ravenscar-full-stm32f4\adalib\\libgnat.a(a-elchha.o)
 .text.__gnat_last_chance_handler
                0x08004988      0x17c C:\gnat\2017\arm-eabi\lib\gnat\ravenscar-full-stm32f4\adalib\\libgnat.a(a-elchha.o)
                0x08004988                __gnat_last_chance_handler
 .text          0x08004b04        0x0 C:\gnat\2017\arm-eabi\lib\gnat\ravenscar-full-stm32f4\adalib\\libgnat.a(s-memset.o)
 .text.memset   0x08004b04       0x14 C:\gnat\2017\arm-eabi\lib\gnat\ravenscar-full-stm32f4\adalib\\libgnat.a(s-memset.o)
                0x08004b04                memset
 .text          0x08004b18        0x0 C:\gnat\2017\arm-eabi\lib\gnat\ravenscar-full-stm32f4\adalib\\libgnat.a(s-memmov.o)
 .text.memmove  0x08004b18       0x6c C:\gnat\2017\arm-eabi\lib\gnat\ravenscar-full-stm32f4\adalib\\libgnat.a(s-memmov.o)
                0x08004b18                memmove
 .text          0x08004b84        0x0 C:\gnat\2017\arm-eabi\lib\gnat\ravenscar-full-stm32f4\adalib\\libgnat.a(s-memcop.o)
 .text.memcpy   0x08004b84       0x4c C:\gnat\2017\arm-eabi\lib\gnat\ravenscar-full-stm32f4\adalib\\libgnat.a(s-memcop.o)
                0x08004b84                memcpy
 .text          0x08004bd0        0x0 C:\gnat\2017\arm-eabi\lib\gnat\ravenscar-full-stm32f4\adalib\\libgnat.a(s-memcom.o)
 .text.memcmp   0x08004bd0       0x3c C:\gnat\2017\arm-eabi\lib\gnat\ravenscar-full-stm32f4\adalib\\libgnat.a(s-memcom.o)
                0x08004bd0                memcmp
 .text          0x08004c0c        0x0 C:\gnat\2017\arm-eabi\lib\gnat\ravenscar-full-stm32f4\adalib\\libgnat.a(s-secsta.o)
 .text.system__secondary_stack__memoryIP
                0x08004c0c        0x4 C:\gnat\2017\arm-eabi\lib\gnat\ravenscar-full-stm32f4\adalib\\libgnat.a(s-secsta.o)
                0x08004c0c                system__secondary_stack__memoryIP
 .text.system__secondary_stack__ss_allocate
                0x08004c10       0x30 C:\gnat\2017\arm-eabi\lib\gnat\ravenscar-full-stm32f4\adalib\\libgnat.a(s-secsta.o)
                0x08004c10                system__secondary_stack__ss_allocate
 .text.system__secondary_stack__ss_init
                0x08004c40        0xc C:\gnat\2017\arm-eabi\lib\gnat\ravenscar-full-stm32f4\adalib\\libgnat.a(s-secsta.o)
                0x08004c40                system__secondary_stack__ss_init
 .text.system__secondary_stack__ss_mark
                0x08004c4c        0xc C:\gnat\2017\arm-eabi\lib\gnat\ravenscar-full-stm32f4\adalib\\libgnat.a(s-secsta.o)
                0x08004c4c                system__secondary_stack__ss_mark
 .text.system__secondary_stack__ss_release
                0x08004c58        0xc C:\gnat\2017\arm-eabi\lib\gnat\ravenscar-full-stm32f4\adalib\\libgnat.a(s-secsta.o)
                0x08004c58                system__secondary_stack__ss_release
 .text          0x08004c64        0x0 C:\gnat\2017\arm-eabi\lib\gnat\ravenscar-full-stm32f4\adalib\\libgnat.a(s-imgint.o)
 .text.system__img_int__set_digits
                0x08004c64       0x48 C:\gnat\2017\arm-eabi\lib\gnat\ravenscar-full-stm32f4\adalib\\libgnat.a(s-imgint.o)
 .text.system__img_int__set_image_integer
                0x08004cac       0x20 C:\gnat\2017\arm-eabi\lib\gnat\ravenscar-full-stm32f4\adalib\\libgnat.a(s-imgint.o)
                0x08004cac                system__img_int__set_image_integer
 .text.system__img_int__image_integer
                0x08004ccc       0x20 C:\gnat\2017\arm-eabi\lib\gnat\ravenscar-full-stm32f4\adalib\\libgnat.a(s-imgint.o)
                0x08004ccc                system__img_int__image_integer
 *fill*         0x08004cec      0x114 
 .text          0x08004e00      0x194 C:\gnat\2017\arm-eabi\lib\gnat\ravenscar-full-stm32f4\adalib\\libgnat.a(handler.o)
                0x08004e00                __vectors
 .text          0x08004f94       0x20 C:\gnat\2017\arm-eabi\lib\gnat\ravenscar-full-stm32f4\adalib\\libgnat.a(breakpoint_handler.o)
                0x08004f94                __gnat_bkpt_trap
 .text          0x08004fb4        0x0 C:\gnat\2017\arm-eabi\lib\gnat\ravenscar-full-stm32f4\adalib\\libgnat.a(raise-gcc.o)
 .text.read_encoded_value_with_base
                0x08004fb4       0xc0 C:\gnat\2017\arm-eabi\lib\gnat\ravenscar-full-stm32f4\adalib\\libgnat.a(raise-gcc.o)
 .text.base_of_encoded_value
                0x08005074       0x40 C:\gnat\2017\arm-eabi\lib\gnat\ravenscar-full-stm32f4\adalib\\libgnat.a(raise-gcc.o)
 .text.__gnat_personality_v0
                0x080050b4      0x3c8 C:\gnat\2017\arm-eabi\lib\gnat\ravenscar-full-stm32f4\adalib\\libgnat.a(raise-gcc.o)
                0x080050b4                __gnat_personality_v0
 .text.__gnat_cleanupunwind_handler
                0x0800547c       0x14 C:\gnat\2017\arm-eabi\lib\gnat\ravenscar-full-stm32f4\adalib\\libgnat.a(raise-gcc.o)
                0x0800547c                __gnat_cleanupunwind_handler
 .text.__gnat_Unwind_RaiseException
                0x08005490        0x4 C:\gnat\2017\arm-eabi\lib\gnat\ravenscar-full-stm32f4\adalib\\libgnat.a(raise-gcc.o)
                0x08005490                __gnat_Unwind_RaiseException
 .text.__gnat_Unwind_ForcedUnwind
                0x08005494        0x4 C:\gnat\2017\arm-eabi\lib\gnat\ravenscar-full-stm32f4\adalib\\libgnat.a(raise-gcc.o)
                0x08005494                __gnat_Unwind_ForcedUnwind
 .text          0x08005498        0x0 C:\gnat\2017\arm-eabi\lib\gnat\ravenscar-full-stm32f4\adalib\\libgnat.a(adaint-xi.o)
 .text.__gnat_get_executable_load_address
                0x08005498        0x4 C:\gnat\2017\arm-eabi\lib\gnat\ravenscar-full-stm32f4\adalib\\libgnat.a(adaint-xi.o)
                0x08005498                __gnat_get_executable_load_address
 .text          0x0800549c        0x0 C:\gnat\2017\arm-eabi\lib\gnat\ravenscar-full-stm32f4\adalib\\libgnat.a(s-bbinte.o)
 .text.system__bb__interrupts__Tinterrupt_stacksBIP
                0x0800549c        0x4 C:\gnat\2017\arm-eabi\lib\gnat\ravenscar-full-stm32f4\adalib\\libgnat.a(s-bbinte.o)
                0x0800549c                system__bb__interrupts__Tinterrupt_stacksBIP
 .text.system__bb__interrupts__Tinterrupt_stack_tableBIP
                0x080054a0        0x4 C:\gnat\2017\arm-eabi\lib\gnat\ravenscar-full-stm32f4\adalib\\libgnat.a(s-bbinte.o)
                0x080054a0                system__bb__interrupts__Tinterrupt_stack_tableBIP
 .text.system__bb__interrupts__attach_handler
                0x080054a4       0x1c C:\gnat\2017\arm-eabi\lib\gnat\ravenscar-full-stm32f4\adalib\\libgnat.a(s-bbinte.o)
                0x080054a4                system__bb__interrupts__attach_handler
 .text.system__bb__interrupts__current_interrupt
                0x080054c0       0x1c C:\gnat\2017\arm-eabi\lib\gnat\ravenscar-full-stm32f4\adalib\\libgnat.a(s-bbinte.o)
                0x080054c0                system__bb__interrupts__current_interrupt
 .text.system__bb__interrupts__interrupt_wrapper
                0x080054dc       0xf8 C:\gnat\2017\arm-eabi\lib\gnat\ravenscar-full-stm32f4\adalib\\libgnat.a(s-bbinte.o)
                0x080054dc                system__bb__interrupts__interrupt_wrapper
 .text.system__bb__interrupts__within_interrupt_stack
                0x080055d4       0x40 C:\gnat\2017\arm-eabi\lib\gnat\ravenscar-full-stm32f4\adalib\\libgnat.a(s-bbinte.o)
                0x080055d4                system__bb__interrupts__within_interrupt_stack
 .text.system__bb__interrupts__initialize_interrupts
                0x08005614       0x10 C:\gnat\2017\arm-eabi\lib\gnat\ravenscar-full-stm32f4\adalib\\libgnat.a(s-bbinte.o)
                0x08005614                system__bb__interrupts__initialize_interrupts
 .text          0x08005624        0x0 C:\gnat\2017\arm-eabi\lib\gnat\ravenscar-full-stm32f4\adalib\\libgnat.a(s-bbcppr.o)
 .text.system__bb__cpu_primitives__gnat_error_handler
                0x08005624       0x7c C:\gnat\2017\arm-eabi\lib\gnat\ravenscar-full-stm32f4\adalib\\libgnat.a(s-bbcppr.o)
                0x08005624                system__bb__cpu_primitives__gnat_error_handler
 .text.system__bb__cpu_primitives__Tcontext_bufferBIP
                0x080056a0        0x4 C:\gnat\2017\arm-eabi\lib\gnat\ravenscar-full-stm32f4\adalib\\libgnat.a(s-bbcppr.o)
                0x080056a0                system__bb__cpu_primitives__Tcontext_bufferBIP
 .text.system__bb__cpu_primitives__hardware_contextIP
                0x080056a4        0x4 C:\gnat\2017\arm-eabi\lib\gnat\ravenscar-full-stm32f4\adalib\\libgnat.a(s-bbcppr.o)
                0x080056a4                system__bb__cpu_primitives__hardware_contextIP
 .text.primask  0x080056a8        0x8 C:\gnat\2017\arm-eabi\lib\gnat\ravenscar-full-stm32f4\adalib\\libgnat.a(s-bbcppr.o)
                0x080056a8                primask
 .text.system__bb__cpu_primitives__initialize_cpu
                0x080056b0       0x84 C:\gnat\2017\arm-eabi\lib\gnat\ravenscar-full-stm32f4\adalib\\libgnat.a(s-bbcppr.o)
                0x080056b0                system__bb__cpu_primitives__initialize_cpu
 .text.system__bb__cpu_primitives__context_switch
                0x08005734       0x10 C:\gnat\2017\arm-eabi\lib\gnat\ravenscar-full-stm32f4\adalib\\libgnat.a(s-bbcppr.o)
                0x08005734                system__bb__cpu_primitives__context_switch
 .text.system__bb__cpu_primitives__get_context
                0x08005744        0x8 C:\gnat\2017\arm-eabi\lib\gnat\ravenscar-full-stm32f4\adalib\\libgnat.a(s-bbcppr.o)
                0x08005744                system__bb__cpu_primitives__get_context
 .text.__gnat_irq_trap
                0x0800574c       0x54 C:\gnat\2017\arm-eabi\lib\gnat\ravenscar-full-stm32f4\adalib\\libgnat.a(s-bbcppr.o)
                0x0800574c                __gnat_irq_trap
 .text.__gnat_pend_sv_trap
                0x080057a0       0x4c C:\gnat\2017\arm-eabi\lib\gnat\ravenscar-full-stm32f4\adalib\\libgnat.a(s-bbcppr.o)
                0x080057a0                __gnat_pend_sv_trap
 .text.__gnat_sv_call_trap
                0x080057ec        0x8 C:\gnat\2017\arm-eabi\lib\gnat\ravenscar-full-stm32f4\adalib\\libgnat.a(s-bbcppr.o)
                0x080057ec                __gnat_sv_call_trap
 .text.system__bb__cpu_primitives__set_context
                0x080057f4        0x8 C:\gnat\2017\arm-eabi\lib\gnat\ravenscar-full-stm32f4\adalib\\libgnat.a(s-bbcppr.o)
                0x080057f4                system__bb__cpu_primitives__set_context
 .text.__gnat_sys_tick_trap
                0x080057fc       0x70 C:\gnat\2017\arm-eabi\lib\gnat\ravenscar-full-stm32f4\adalib\\libgnat.a(s-bbcppr.o)
                0x080057fc                __gnat_sys_tick_trap
 .text.system__bb__cpu_primitives__initialize_context
                0x0800586c       0x50 C:\gnat\2017\arm-eabi\lib\gnat\ravenscar-full-stm32f4\adalib\\libgnat.a(s-bbcppr.o)
                0x0800586c                system__bb__cpu_primitives__initialize_context
 .text.system__bb__cpu_primitives__install_error_handlers
                0x080058bc       0x1c C:\gnat\2017\arm-eabi\lib\gnat\ravenscar-full-stm32f4\adalib\\libgnat.a(s-bbcppr.o)
                0x080058bc                system__bb__cpu_primitives__install_error_handlers
 .text.system__bb__cpu_primitives__install_trap_handler
                0x080058d8        0xc C:\gnat\2017\arm-eabi\lib\gnat\ravenscar-full-stm32f4\adalib\\libgnat.a(s-bbcppr.o)
                0x080058d8                system__bb__cpu_primitives__install_trap_handler
 .text.system__bb__cpu_primitives__disable_interrupts
                0x080058e4        0x4 C:\gnat\2017\arm-eabi\lib\gnat\ravenscar-full-stm32f4\adalib\\libgnat.a(s-bbcppr.o)
                0x080058e4                system__bb__cpu_primitives__disable_interrupts
 .text.system__bb__cpu_primitives__enable_interrupts
                0x080058e8       0x24 C:\gnat\2017\arm-eabi\lib\gnat\ravenscar-full-stm32f4\adalib\\libgnat.a(s-bbcppr.o)
                0x080058e8                system__bb__cpu_primitives__enable_interrupts
 .text          0x0800590c        0x0 C:\gnat\2017\arm-eabi\lib\gnat\ravenscar-full-stm32f4\adalib\\libgnat.a(s-bbbosu.o)
 .text.system__bb__board_support__timer_interrupt_handler
                0x0800590c        0x8 C:\gnat\2017\arm-eabi\lib\gnat\ravenscar-full-stm32f4\adalib\\libgnat.a(s-bbbosu.o)
                0x0800590c                system__bb__board_support__timer_interrupt_handler
 .text.system__bb__board_support__interrupt_handler
                0x08005914        0xc C:\gnat\2017\arm-eabi\lib\gnat\ravenscar-full-stm32f4\adalib\\libgnat.a(s-bbbosu.o)
                0x08005914                system__bb__board_support__interrupt_handler
 .text.system__bb__board_support__enable_interrupt_request.part.0
                0x08005920       0x1c C:\gnat\2017\arm-eabi\lib\gnat\ravenscar-full-stm32f4\adalib\\libgnat.a(s-bbbosu.o)
 .text.system__bb__board_support__time__max_timer_interval
                0x0800593c        0x8 C:\gnat\2017\arm-eabi\lib\gnat\ravenscar-full-stm32f4\adalib\\libgnat.a(s-bbbosu.o)
                0x0800593c                system__bb__board_support__time__max_timer_interval
 .text.system__bb__board_support__time__read_clock
                0x08005944       0x40 C:\gnat\2017\arm-eabi\lib\gnat\ravenscar-full-stm32f4\adalib\\libgnat.a(s-bbbosu.o)
                0x08005944                system__bb__board_support__time__read_clock
 .text.system__bb__board_support__time__clear_alarm_interrupt
                0x08005984       0x10 C:\gnat\2017\arm-eabi\lib\gnat\ravenscar-full-stm32f4\adalib\\libgnat.a(s-bbbosu.o)
                0x08005984                system__bb__board_support__time__clear_alarm_interrupt
 .text.system__bb__board_support__time__set_alarm
                0x08005994       0x60 C:\gnat\2017\arm-eabi\lib\gnat\ravenscar-full-stm32f4\adalib\\libgnat.a(s-bbbosu.o)
                0x08005994                system__bb__board_support__time__set_alarm
 .text.system__bb__board_support__time__install_alarm_handler
                0x080059f4        0xc C:\gnat\2017\arm-eabi\lib\gnat\ravenscar-full-stm32f4\adalib\\libgnat.a(s-bbbosu.o)
                0x080059f4                system__bb__board_support__time__install_alarm_handler
 .text.system__bb__board_support__multiprocessors__number_of_cpus
                0x08005a00        0x4 C:\gnat\2017\arm-eabi\lib\gnat\ravenscar-full-stm32f4\adalib\\libgnat.a(s-bbbosu.o)
                0x08005a00                system__bb__board_support__multiprocessors__number_of_cpus
 .text.system__bb__board_support__multiprocessors__current_cpu
                0x08005a04        0x4 C:\gnat\2017\arm-eabi\lib\gnat\ravenscar-full-stm32f4\adalib\\libgnat.a(s-bbbosu.o)
                0x08005a04                system__bb__board_support__multiprocessors__current_cpu
 .text.system__bb__board_support__multiprocessors__poke_cpu
                0x08005a08        0x4 C:\gnat\2017\arm-eabi\lib\gnat\ravenscar-full-stm32f4\adalib\\libgnat.a(s-bbbosu.o)
                0x08005a08                system__bb__board_support__multiprocessors__poke_cpu
 .text.system__bb__board_support__multiprocessors__start_all_cpus
                0x08005a0c        0x4 C:\gnat\2017\arm-eabi\lib\gnat\ravenscar-full-stm32f4\adalib\\libgnat.a(s-bbbosu.o)
                0x08005a0c                system__bb__board_support__multiprocessors__start_all_cpus
 .text.system__bb__board_support__interrupts__install_interrupt_handler
                0x08005a10       0x54 C:\gnat\2017\arm-eabi\lib\gnat\ravenscar-full-stm32f4\adalib\\libgnat.a(s-bbbosu.o)
                0x08005a10                system__bb__board_support__interrupts__install_interrupt_handler
 .text.system__bb__board_support__interrupts__priority_of_interrupt
                0x08005a64       0x20 C:\gnat\2017\arm-eabi\lib\gnat\ravenscar-full-stm32f4\adalib\\libgnat.a(s-bbbosu.o)
                0x08005a64                system__bb__board_support__interrupts__priority_of_interrupt
 .text.system__bb__board_support__interrupts__power_down
                0x08005a84        0x4 C:\gnat\2017\arm-eabi\lib\gnat\ravenscar-full-stm32f4\adalib\\libgnat.a(s-bbbosu.o)
                0x08005a84                system__bb__board_support__interrupts__power_down
 .text.system__bb__board_support__interrupts__set_current_priority
                0x08005a88       0x18 C:\gnat\2017\arm-eabi\lib\gnat\ravenscar-full-stm32f4\adalib\\libgnat.a(s-bbbosu.o)
                0x08005a88                system__bb__board_support__interrupts__set_current_priority
 .text.system__bb__board_support__sys_tick_registersIP
                0x08005aa0        0x4 C:\gnat\2017\arm-eabi\lib\gnat\ravenscar-full-stm32f4\adalib\\libgnat.a(s-bbbosu.o)
                0x08005aa0                system__bb__board_support__sys_tick_registersIP
 .text.system__bb__board_support__TipBIP
                0x08005aa4        0x4 C:\gnat\2017\arm-eabi\lib\gnat\ravenscar-full-stm32f4\adalib\\libgnat.a(s-bbbosu.o)
                0x08005aa4                system__bb__board_support__TipBIP
 .text.system__bb__board_support__initialize_board
                0x08005aa8       0x9c C:\gnat\2017\arm-eabi\lib\gnat\ravenscar-full-stm32f4\adalib\\libgnat.a(s-bbbosu.o)
                0x08005aa8                system__bb__board_support__initialize_board
 .text.system__bb__board_support__enable_interrupt_request
                0x08005b44       0x30 C:\gnat\2017\arm-eabi\lib\gnat\ravenscar-full-stm32f4\adalib\\libgnat.a(s-bbbosu.o)
                0x08005b44                system__bb__board_support__enable_interrupt_request
 .text.system__bb__board_support__to_pri
                0x08005b74       0x14 C:\gnat\2017\arm-eabi\lib\gnat\ravenscar-full-stm32f4\adalib\\libgnat.a(s-bbbosu.o)
                0x08005b74                system__bb__board_support__to_pri
 .text.system__bb__board_support__to_priority
                0x08005b88       0x10 C:\gnat\2017\arm-eabi\lib\gnat\ravenscar-full-stm32f4\adalib\\libgnat.a(s-bbbosu.o)
                0x08005b88                system__bb__board_support__to_priority
 .text          0x08005b98        0x0 C:\gnat\2017\arm-eabi\lib\gnat\ravenscar-full-stm32f4\adalib\\libgnat.a(s-bbmcpa.o)
 .text.system__bb__mcu_parameters__is_pwr_stabilized
                0x08005b98       0x10 C:\gnat\2017\arm-eabi\lib\gnat\ravenscar-full-stm32f4\adalib\\libgnat.a(s-bbmcpa.o)
                0x08005b98                system__bb__mcu_parameters__is_pwr_stabilized
 .text.system__bb__mcu_parameters__pwr_initialize
                0x08005ba8       0x10 C:\gnat\2017\arm-eabi\lib\gnat\ravenscar-full-stm32f4\adalib\\libgnat.a(s-bbmcpa.o)
                0x08005ba8                system__bb__mcu_parameters__pwr_initialize
 .text.system__bb__mcu_parameters__pwr_overdrive_enable
                0x08005bb8        0x4 C:\gnat\2017\arm-eabi\lib\gnat\ravenscar-full-stm32f4\adalib\\libgnat.a(s-bbmcpa.o)
                0x08005bb8                system__bb__mcu_parameters__pwr_overdrive_enable
 .text          0x08005bbc        0x0 C:\gnat\2017\arm-eabi\lib\gnat\ravenscar-full-stm32f4\adalib\\libgnat.a(s-bbtime.o)
 .text.system__bb__time__composite_execution_timeIP
                0x08005bbc        0x4 C:\gnat\2017\arm-eabi\lib\gnat\ravenscar-full-stm32f4\adalib\\libgnat.a(s-bbtime.o)
                0x08005bbc                system__bb__time__composite_execution_timeIP
 .text.system__bb__time__composite_timeIP
                0x08005bc0        0xc C:\gnat\2017\arm-eabi\lib\gnat\ravenscar-full-stm32f4\adalib\\libgnat.a(s-bbtime.o)
                0x08005bc0                system__bb__time__composite_timeIP
 .text.system__bb__time__clock
                0x08005bcc       0x54 C:\gnat\2017\arm-eabi\lib\gnat\ravenscar-full-stm32f4\adalib\\libgnat.a(s-bbtime.o)
                0x08005bcc                system__bb__time__clock
 .text.system__bb__time__epoch
                0x08005c20        0x8 C:\gnat\2017\arm-eabi\lib\gnat\ravenscar-full-stm32f4\adalib\\libgnat.a(s-bbtime.o)
                0x08005c20                system__bb__time__epoch
 .text.system__bb__time__get_next_timeout
                0x08005c28       0x58 C:\gnat\2017\arm-eabi\lib\gnat\ravenscar-full-stm32f4\adalib\\libgnat.a(s-bbtime.o)
                0x08005c28                system__bb__time__get_next_timeout
 .text.system__bb__time__initialize_timers
                0x08005c80       0x8c C:\gnat\2017\arm-eabi\lib\gnat\ravenscar-full-stm32f4\adalib\\libgnat.a(s-bbtime.o)
                0x08005c80                system__bb__time__initialize_timers
 .text.system__bb__time__update_alarm
                0x08005d0c       0x98 C:\gnat\2017\arm-eabi\lib\gnat\ravenscar-full-stm32f4\adalib\\libgnat.a(s-bbtime.o)
                0x08005d0c                system__bb__time__update_alarm
 .text.system__bb__time__delay_until
                0x08005da4       0xec C:\gnat\2017\arm-eabi\lib\gnat\ravenscar-full-stm32f4\adalib\\libgnat.a(s-bbtime.o)
                0x08005da4                system__bb__time__delay_until
 .text.system__bb__time__alarm_handler
                0x08005e90       0xcc C:\gnat\2017\arm-eabi\lib\gnat\ravenscar-full-stm32f4\adalib\\libgnat.a(s-bbtime.o)
 .text.system__bb__time__Oconcat
                0x08005f5c       0x18 C:\gnat\2017\arm-eabi\lib\gnat\ravenscar-full-stm32f4\adalib\\libgnat.a(s-bbtime.o)
                0x08005f5c                system__bb__time__Oconcat
 .text          0x08005f74        0x0 C:\gnat\2017\arm-eabi\lib\gnat\ravenscar-full-stm32f4\adalib\\libgnat.a(s-traceb.o)
 .text.system__traceback__backtrace_callback
                0x08005f74       0x54 C:\gnat\2017\arm-eabi\lib\gnat\ravenscar-full-stm32f4\adalib\\libgnat.a(s-traceb.o)
 .text.system__traceback__unwind_context_typeIP
                0x08005fc8        0x8 C:\gnat\2017\arm-eabi\lib\gnat\ravenscar-full-stm32f4\adalib\\libgnat.a(s-traceb.o)
                0x08005fc8                system__traceback__unwind_context_typeIP
 .text.system__traceback__callback_params_typeIP
                0x08005fd0        0x8 C:\gnat\2017\arm-eabi\lib\gnat\ravenscar-full-stm32f4\adalib\\libgnat.a(s-traceb.o)
                0x08005fd0                system__traceback__callback_params_typeIP
 .text.system__traceback__call_chain
                0x08005fd8       0x2c C:\gnat\2017\arm-eabi\lib\gnat\ravenscar-full-stm32f4\adalib\\libgnat.a(s-traceb.o)
                0x08005fd8                system__traceback__call_chain
 .text          0x08006004        0x0 C:\gnat\2017\arm-eabi\lib\gnat\ravenscar-full-stm32f4\adalib\\libgnat.a(s-excmac.o)
 .text.system__exceptions__machine__Texception_classBIP
                0x08006004        0x4 C:\gnat\2017\arm-eabi\lib\gnat\ravenscar-full-stm32f4\adalib\\libgnat.a(s-excmac.o)
                0x08006004                system__exceptions__machine__Texception_classBIP
 .text.system__exceptions__machine__uint32_t_arrayIP
                0x08006008        0x4 C:\gnat\2017\arm-eabi\lib\gnat\ravenscar-full-stm32f4\adalib\\libgnat.a(s-excmac.o)
                0x08006008                system__exceptions__machine__uint32_t_arrayIP
 .text.system__exceptions__machine__unwinder_cache_typeIP
                0x0800600c        0x4 C:\gnat\2017\arm-eabi\lib\gnat\ravenscar-full-stm32f4\adalib\\libgnat.a(s-excmac.o)
                0x0800600c                system__exceptions__machine__unwinder_cache_typeIP
 .text.system__exceptions__machine__barrier_cache_typeIP
                0x08006010        0x4 C:\gnat\2017\arm-eabi\lib\gnat\ravenscar-full-stm32f4\adalib\\libgnat.a(s-excmac.o)
                0x08006010                system__exceptions__machine__barrier_cache_typeIP
 .text.system__exceptions__machine__cleanup_cache_typeIP
                0x08006014        0x4 C:\gnat\2017\arm-eabi\lib\gnat\ravenscar-full-stm32f4\adalib\\libgnat.a(s-excmac.o)
                0x08006014                system__exceptions__machine__cleanup_cache_typeIP
 .text.system__exceptions__machine__pr_cache_typeIP
                0x08006018        0x4 C:\gnat\2017\arm-eabi\lib\gnat\ravenscar-full-stm32f4\adalib\\libgnat.a(s-excmac.o)
                0x08006018                system__exceptions__machine__pr_cache_typeIP
 .text.system__exceptions__machine__unwind_control_blockIP
                0x0800601c        0x4 C:\gnat\2017\arm-eabi\lib\gnat\ravenscar-full-stm32f4\adalib\\libgnat.a(s-excmac.o)
                0x0800601c                system__exceptions__machine__unwind_control_blockIP
 .text.system__exceptions__machine__gnat_gcc_exceptionIP
                0x08006020       0x14 C:\gnat\2017\arm-eabi\lib\gnat\ravenscar-full-stm32f4\adalib\\libgnat.a(s-excmac.o)
                0x08006020                system__exceptions__machine__gnat_gcc_exceptionIP
 .text.system__exceptions__machine__new_occurrence
                0x08006034       0x34 C:\gnat\2017\arm-eabi\lib\gnat\ravenscar-full-stm32f4\adalib\\libgnat.a(s-excmac.o)
                0x08006034                system__exceptions__machine__new_occurrence
 .text          0x08006068        0x0 C:\gnat\2017\arm-eabi\lib\gnat\ravenscar-full-stm32f4\adalib\\libgnat.a(s-wchstw.o)
 .text.system__wch_stw__get_next_code__in_char.5425
                0x08006068       0x38 C:\gnat\2017\arm-eabi\lib\gnat\ravenscar-full-stm32f4\adalib\\libgnat.a(s-wchstw.o)
 .text.system__wch_stw__get_next_code__get_utf_32__get_hex.5437
                0x080060a0       0x58 C:\gnat\2017\arm-eabi\lib\gnat\ravenscar-full-stm32f4\adalib\\libgnat.a(s-wchstw.o)
 .text.system__wch_stw__get_next_code
                0x080060f8      0x488 C:\gnat\2017\arm-eabi\lib\gnat\ravenscar-full-stm32f4\adalib\\libgnat.a(s-wchstw.o)
 .text.system__wch_stw__string_to_wide_string
                0x08006580       0x68 C:\gnat\2017\arm-eabi\lib\gnat\ravenscar-full-stm32f4\adalib\\libgnat.a(s-wchstw.o)
                0x08006580                system__wch_stw__string_to_wide_string
 .text.system__wch_stw__string_to_wide_wide_string
                0x080065e8       0x50 C:\gnat\2017\arm-eabi\lib\gnat\ravenscar-full-stm32f4\adalib\\libgnat.a(s-wchstw.o)
                0x080065e8                system__wch_stw__string_to_wide_wide_string
 .text          0x08006638        0x0 C:\gnat\2017\arm-eabi\lib\gnat\ravenscar-full-stm32f4\adalib\\libgnat.a(s-wchjis.o)
 .text.system__wch_jis__euc_to_jis
                0x08006638       0x40 C:\gnat\2017\arm-eabi\lib\gnat\ravenscar-full-stm32f4\adalib\\libgnat.a(s-wchjis.o)
                0x08006638                system__wch_jis__euc_to_jis
 .text.system__wch_jis__jis_to_euc
                0x08006678       0x50 C:\gnat\2017\arm-eabi\lib\gnat\ravenscar-full-stm32f4\adalib\\libgnat.a(s-wchjis.o)
                0x08006678                system__wch_jis__jis_to_euc
 .text.system__wch_jis__jis_to_shift_jis
                0x080066c8       0x50 C:\gnat\2017\arm-eabi\lib\gnat\ravenscar-full-stm32f4\adalib\\libgnat.a(s-wchjis.o)
                0x080066c8                system__wch_jis__jis_to_shift_jis
 .text.system__wch_jis__shift_jis_to_jis
                0x08006718       0x54 C:\gnat\2017\arm-eabi\lib\gnat\ravenscar-full-stm32f4\adalib\\libgnat.a(s-wchjis.o)
                0x08006718                system__wch_jis__shift_jis_to_jis
 .text          0x0800676c        0x0 C:\gnat\2017\arm-eabi\lib\gnat\ravenscar-full-stm32f4\adalib\\libgnat.a(s-wchcon.o)
 .text.system__wch_con__get_wc_encoding_method
                0x0800676c       0x40 C:\gnat\2017\arm-eabi\lib\gnat\ravenscar-full-stm32f4\adalib\\libgnat.a(s-wchcon.o)
                0x0800676c                system__wch_con__get_wc_encoding_method
 .text.system__wch_con__get_wc_encoding_method__2
                0x080067ac       0x98 C:\gnat\2017\arm-eabi\lib\gnat\ravenscar-full-stm32f4\adalib\\libgnat.a(s-wchcon.o)
                0x080067ac                system__wch_con__get_wc_encoding_method__2
 .text.system__wch_con__is_start_of_encoding
                0x08006844       0x2c C:\gnat\2017\arm-eabi\lib\gnat\ravenscar-full-stm32f4\adalib\\libgnat.a(s-wchcon.o)
                0x08006844                system__wch_con__is_start_of_encoding
 .text          0x08006870        0x0 C:\gnat\2017\arm-eabi\lib\gnat\ravenscar-full-stm32f4\adalib\\libgnat.a(s-valuns.o)
 .text.system__val_uns__scan_raw_unsigned
                0x08006870      0x214 C:\gnat\2017\arm-eabi\lib\gnat\ravenscar-full-stm32f4\adalib\\libgnat.a(s-valuns.o)
                0x08006870                system__val_uns__scan_raw_unsigned
 .text.system__val_uns__scan_unsigned
                0x08006a84       0x48 C:\gnat\2017\arm-eabi\lib\gnat\ravenscar-full-stm32f4\adalib\\libgnat.a(s-valuns.o)
                0x08006a84                system__val_uns__scan_unsigned
 .text.system__val_uns__value_unsigned
                0x08006acc       0x4c C:\gnat\2017\arm-eabi\lib\gnat\ravenscar-full-stm32f4\adalib\\libgnat.a(s-valuns.o)
                0x08006acc                system__val_uns__value_unsigned
 .text          0x08006b18        0x0 C:\gnat\2017\arm-eabi\lib\gnat\ravenscar-full-stm32f4\adalib\\libgnat.a(s-traent.o)
 .text.system__traceback_entries__tracebacks_arrayIP
                0x08006b18        0x4 C:\gnat\2017\arm-eabi\lib\gnat\ravenscar-full-stm32f4\adalib\\libgnat.a(s-traent.o)
                0x08006b18                system__traceback_entries__tracebacks_arrayIP
 .text.system__traceback_entries__pc_for
                0x08006b1c        0x4 C:\gnat\2017\arm-eabi\lib\gnat\ravenscar-full-stm32f4\adalib\\libgnat.a(s-traent.o)
                0x08006b1c                system__traceback_entries__pc_for
 .text.system__traceback_entries__tb_entry_for
                0x08006b20        0x4 C:\gnat\2017\arm-eabi\lib\gnat\ravenscar-full-stm32f4\adalib\\libgnat.a(s-traent.o)
                0x08006b20                system__traceback_entries__tb_entry_for
 .text          0x08006b24        0x0 C:\gnat\2017\arm-eabi\lib\gnat\ravenscar-full-stm32f4\adalib\\libgnat.a(s-memory.o)
 .text.__gnat_malloc
                0x08006b24       0x54 C:\gnat\2017\arm-eabi\lib\gnat\ravenscar-full-stm32f4\adalib\\libgnat.a(s-memory.o)
                0x08006b24                __gnat_malloc
 .text.__gnat_free
                0x08006b78       0x24 C:\gnat\2017\arm-eabi\lib\gnat\ravenscar-full-stm32f4\adalib\\libgnat.a(s-memory.o)
                0x08006b78                __gnat_free
 .text.__gnat_realloc
                0x08006b9c       0x54 C:\gnat\2017\arm-eabi\lib\gnat\ravenscar-full-stm32f4\adalib\\libgnat.a(s-memory.o)
                0x08006b9c                __gnat_realloc
 .text          0x08006bf0        0x0 C:\gnat\2017\arm-eabi\lib\gnat\ravenscar-full-stm32f4\adalib\\libgnat.a(s-io.o)
 .text.system__io__put__2
                0x08006bf0       0x28 C:\gnat\2017\arm-eabi\lib\gnat\ravenscar-full-stm32f4\adalib\\libgnat.a(s-io.o)
                0x08006bf0                system__io__put__2
 .text.system__io__new_line
                0x08006c18       0x30 C:\gnat\2017\arm-eabi\lib\gnat\ravenscar-full-stm32f4\adalib\\libgnat.a(s-io.o)
                0x08006c18                system__io__new_line
 .text.system__io__put__3
                0x08006c48       0x20 C:\gnat\2017\arm-eabi\lib\gnat\ravenscar-full-stm32f4\adalib\\libgnat.a(s-io.o)
                0x08006c48                system__io__put__3
 .text.system__io__put
                0x08006c68       0x24 C:\gnat\2017\arm-eabi\lib\gnat\ravenscar-full-stm32f4\adalib\\libgnat.a(s-io.o)
                0x08006c68                system__io__put
 .text.put_char_stderr
                0x08006c8c        0x4 C:\gnat\2017\arm-eabi\lib\gnat\ravenscar-full-stm32f4\adalib\\libgnat.a(s-io.o)
                0x08006c8c                put_char_stderr
 .text.system__io__put_line
                0x08006c90       0x10 C:\gnat\2017\arm-eabi\lib\gnat\ravenscar-full-stm32f4\adalib\\libgnat.a(s-io.o)
                0x08006c90                system__io__put_line
 .text.system__io__standard_output
                0x08006ca0        0x4 C:\gnat\2017\arm-eabi\lib\gnat\ravenscar-full-stm32f4\adalib\\libgnat.a(s-io.o)
                0x08006ca0                system__io__standard_output
 .text.system__io__standard_error
                0x08006ca4        0x4 C:\gnat\2017\arm-eabi\lib\gnat\ravenscar-full-stm32f4\adalib\\libgnat.a(s-io.o)
                0x08006ca4                system__io__standard_error
 .text.system__io__set_output
                0x08006ca8        0x4 C:\gnat\2017\arm-eabi\lib\gnat\ravenscar-full-stm32f4\adalib\\libgnat.a(s-io.o)
                0x08006ca8                system__io__set_output
 .text          0x08006cac        0x0 C:\gnat\2017\arm-eabi\lib\gnat\ravenscar-full-stm32f4\adalib\\libgnat.a(s-except.o)
 .text          0x08006cac        0x0 C:\gnat\2017\arm-eabi\lib\gnat\ravenscar-full-stm32f4\adalib\\libgnat.a(s-excdeb.o)
 .text.__gnat_debug_raise_exception
                0x08006cac       0x1c C:\gnat\2017\arm-eabi\lib\gnat\ravenscar-full-stm32f4\adalib\\libgnat.a(s-excdeb.o)
                0x08006cac                __gnat_debug_raise_exception
 .text.__gnat_unhandled_exception
                0x08006cc8       0x14 C:\gnat\2017\arm-eabi\lib\gnat\ravenscar-full-stm32f4\adalib\\libgnat.a(s-excdeb.o)
                0x08006cc8                __gnat_unhandled_exception
 .text.__gnat_debug_raise_assert_failure
                0x08006cdc       0x10 C:\gnat\2017\arm-eabi\lib\gnat\ravenscar-full-stm32f4\adalib\\libgnat.a(s-excdeb.o)
                0x08006cdc                __gnat_debug_raise_assert_failure
 .text.local_raise
                0x08006cec       0x14 C:\gnat\2017\arm-eabi\lib\gnat\ravenscar-full-stm32f4\adalib\\libgnat.a(s-excdeb.o)
                0x08006cec                local_raise
 .text          0x08006d00        0x0 C:\gnat\2017\arm-eabi\lib\gnat\ravenscar-full-stm32f4\adalib\\libgnat.a(g-debuti.o)
 .text.gnat__debug_utilities__image__2
                0x08006d00       0x50 C:\gnat\2017\arm-eabi\lib\gnat\ravenscar-full-stm32f4\adalib\\libgnat.a(g-debuti.o)
                0x08006d00                gnat__debug_utilities__image__2
 .text.gnat__debug_utilities__image
                0x08006d50       0xa4 C:\gnat\2017\arm-eabi\lib\gnat\ravenscar-full-stm32f4\adalib\\libgnat.a(g-debuti.o)
                0x08006d50                gnat__debug_utilities__image
 .text.gnat__debug_utilities__image_c
                0x08006df4       0x2c C:\gnat\2017\arm-eabi\lib\gnat\ravenscar-full-stm32f4\adalib\\libgnat.a(g-debuti.o)
                0x08006df4                gnat__debug_utilities__image_c
 .text.gnat__debug_utilities__value
                0x08006e20       0xa4 C:\gnat\2017\arm-eabi\lib\gnat\ravenscar-full-stm32f4\adalib\\libgnat.a(g-debuti.o)
                0x08006e20                gnat__debug_utilities__value
 .text          0x08006ec4        0x0 C:\gnat\2017\arm-eabi\lib\gnat\ravenscar-full-stm32f4\adalib\\libgnat.a(s-textio.o)
 .text.system__text_io__initialize
                0x08006ec4        0xc C:\gnat\2017\arm-eabi\lib\gnat\ravenscar-full-stm32f4\adalib\\libgnat.a(s-textio.o)
                0x08006ec4                system__text_io__initialize
 .text.system__text_io__is_tx_ready
                0x08006ed0        0x4 C:\gnat\2017\arm-eabi\lib\gnat\ravenscar-full-stm32f4\adalib\\libgnat.a(s-textio.o)
                0x08006ed0                system__text_io__is_tx_ready
 .text.system__text_io__is_rx_ready
                0x08006ed4        0x4 C:\gnat\2017\arm-eabi\lib\gnat\ravenscar-full-stm32f4\adalib\\libgnat.a(s-textio.o)
                0x08006ed4                system__text_io__is_rx_ready
 .text.system__text_io__get
                0x08006ed8        0x4 C:\gnat\2017\arm-eabi\lib\gnat\ravenscar-full-stm32f4\adalib\\libgnat.a(s-textio.o)
                0x08006ed8                system__text_io__get
 .text.system__text_io__put
                0x08006edc        0x4 C:\gnat\2017\arm-eabi\lib\gnat\ravenscar-full-stm32f4\adalib\\libgnat.a(s-textio.o)
                0x08006edc                system__text_io__put
 .text.system__text_io__use_cr_lf_for_new_line
                0x08006ee0        0x4 C:\gnat\2017\arm-eabi\lib\gnat\ravenscar-full-stm32f4\adalib\\libgnat.a(s-textio.o)
                0x08006ee0                system__text_io__use_cr_lf_for_new_line
 .text          0x08006ee4        0x0 C:\gnat\2017\arm-eabi\lib\gnat\ravenscar-full-stm32f4\adalib\\libgnat.a(s-semiho.o)
 .text.system__semihosting__put
                0x08006ee4       0x18 C:\gnat\2017\arm-eabi\lib\gnat\ravenscar-full-stm32f4\adalib\\libgnat.a(s-semiho.o)
                0x08006ee4                system__semihosting__put
 .text.system__semihosting__put__2
                0x08006efc       0x4c C:\gnat\2017\arm-eabi\lib\gnat\ravenscar-full-stm32f4\adalib\\libgnat.a(s-semiho.o)
                0x08006efc                system__semihosting__put__2
 .text.system__semihosting__get
                0x08006f48       0x10 C:\gnat\2017\arm-eabi\lib\gnat\ravenscar-full-stm32f4\adalib\\libgnat.a(s-semiho.o)
                0x08006f48                system__semihosting__get
 .text          0x08006f58        0x0 C:\gnat\2017\arm-eabi\lib\gnat\ravenscar-full-stm32f4\adalib\\libgnat.a(s-valuti.o)
 .text.system__val_util__bad_value
                0x08006f58       0x70 C:\gnat\2017\arm-eabi\lib\gnat\ravenscar-full-stm32f4\adalib\\libgnat.a(s-valuti.o)
                0x08006f58                system__val_util__bad_value
 .text.system__val_util__normalize_string
                0x08006fc8       0x78 C:\gnat\2017\arm-eabi\lib\gnat\ravenscar-full-stm32f4\adalib\\libgnat.a(s-valuti.o)
                0x08006fc8                system__val_util__normalize_string
 .text.system__val_util__scan_plus_sign
                0x08007040       0x3c C:\gnat\2017\arm-eabi\lib\gnat\ravenscar-full-stm32f4\adalib\\libgnat.a(s-valuti.o)
                0x08007040                system__val_util__scan_plus_sign
 .text.system__val_util__scan_sign
                0x0800707c       0x58 C:\gnat\2017\arm-eabi\lib\gnat\ravenscar-full-stm32f4\adalib\\libgnat.a(s-valuti.o)
                0x0800707c                system__val_util__scan_sign
 .text.system__val_util__scan_trailing_blanks
                0x080070d4       0x20 C:\gnat\2017\arm-eabi\lib\gnat\ravenscar-full-stm32f4\adalib\\libgnat.a(s-valuti.o)
                0x080070d4                system__val_util__scan_trailing_blanks
 .text.system__val_util__scan_underscore
                0x080070f4       0x48 C:\gnat\2017\arm-eabi\lib\gnat\ravenscar-full-stm32f4\adalib\\libgnat.a(s-valuti.o)
                0x080070f4                system__val_util__scan_underscore
 .text.system__val_util__scan_exponent
                0x0800713c       0xe4 C:\gnat\2017\arm-eabi\lib\gnat\ravenscar-full-stm32f4\adalib\\libgnat.a(s-valuti.o)
                0x0800713c                system__val_util__scan_exponent
 .text          0x08007220        0x0 C:\gnat\2017\arm-eabi\lib\gnat\ravenscar-full-stm32f4\adalib\\libgnat.a(s-casuti.o)
 .text.system__case_util__to_lower
                0x08007220       0x20 C:\gnat\2017\arm-eabi\lib\gnat\ravenscar-full-stm32f4\adalib\\libgnat.a(s-casuti.o)
                0x08007220                system__case_util__to_lower
 .text.system__case_util__to_lower__2
                0x08007240       0x40 C:\gnat\2017\arm-eabi\lib\gnat\ravenscar-full-stm32f4\adalib\\libgnat.a(s-casuti.o)
                0x08007240                system__case_util__to_lower__2
 .text.system__case_util__to_mixed
                0x08007280       0x6c C:\gnat\2017\arm-eabi\lib\gnat\ravenscar-full-stm32f4\adalib\\libgnat.a(s-casuti.o)
                0x08007280                system__case_util__to_mixed
 .text.system__case_util__to_upper
                0x080072ec       0x20 C:\gnat\2017\arm-eabi\lib\gnat\ravenscar-full-stm32f4\adalib\\libgnat.a(s-casuti.o)
                0x080072ec                system__case_util__to_upper
 .text.system__case_util__to_upper__2
                0x0800730c       0x40 C:\gnat\2017\arm-eabi\lib\gnat\ravenscar-full-stm32f4\adalib\\libgnat.a(s-casuti.o)
                0x0800730c                system__case_util__to_upper__2
 .text          0x0800734c       0x20 c:/gnat/2017/bin/../lib/gcc/arm-eabi/6.3.1/../../../../arm-eabi/lib/armv7em/thumb/fpu/fpv4-sp-d16\libc.a(lib_a-malloc.o)
                0x0800734c                malloc
                0x0800735c                free
 .text          0x0800736c      0x550 c:/gnat/2017/bin/../lib/gcc/arm-eabi/6.3.1/../../../../arm-eabi/lib/armv7em/thumb/fpu/fpv4-sp-d16\libc.a(lib_a-mallocr.o)
                0x0800736c                _malloc_r
 .text          0x080078bc        0x8 c:/gnat/2017/bin/../lib/gcc/arm-eabi/6.3.1/../../../../arm-eabi/lib/armv7em/thumb/fpu/fpv4-sp-d16\libc.a(lib_a-mlock.o)
                0x080078bc                __malloc_lock
                0x080078c0                __malloc_unlock
 .text          0x080078c4       0x10 c:/gnat/2017/bin/../lib/gcc/arm-eabi/6.3.1/../../../../arm-eabi/lib/armv7em/thumb/fpu/fpv4-sp-d16\libc.a(lib_a-realloc.o)
                0x080078c4                realloc
 .text          0x080078d4      0x348 c:/gnat/2017/bin/../lib/gcc/arm-eabi/6.3.1/../../../../arm-eabi/lib/armv7em/thumb/fpu/fpv4-sp-d16\libc.a(lib_a-reallocr.o)
                0x080078d4                _realloc_r
 .text          0x08007c1c       0x24 c:/gnat/2017/bin/../lib/gcc/arm-eabi/6.3.1/../../../../arm-eabi/lib/armv7em/thumb/fpu/fpv4-sp-d16\libc.a(lib_a-sbrkr.o)
                0x08007c1c                _sbrk_r
 .text          0x08007c40      0x274 c:/gnat/2017/bin/../lib/gcc/arm-eabi/6.3.1/../../../../arm-eabi/lib/armv7em/thumb/fpu/fpv4-sp-d16\libc.a(lib_a-freer.o)
                0x08007c40                _malloc_trim_r
                0x08007ce0                _free_r
 .text          0x08007eb4        0x0 c:/gnat/2017/bin/../lib/gcc/arm-eabi/6.3.1/../../../../arm-eabi/lib/armv7em/thumb/fpu/fpv4-sp-d16\libc.a(lib_a-impure.o)
 .text          0x08007eb4       0xa4 c:/gnat/2017/bin/../lib/gcc/arm-eabi/6.3.1/../../../../arm-eabi/lib/armv7em/thumb/fpu/fpv4-sp-d16\libc.a(lib_a-reent.o)
                0x08007eb4                cleanup_glue
                0x08007ed0                _reclaim_reent
 .text          0x08007f58        0x0 C:\gnat\2017\arm-eabi\lib\gnat\ravenscar-full-stm32f4\adalib\\libgnat.a(newlib-bb.o)
 .text._isatty  0x08007f58        0x4 C:\gnat\2017\arm-eabi\lib\gnat\ravenscar-full-stm32f4\adalib\\libgnat.a(newlib-bb.o)
                0x08007f58                _isatty
 .text._write   0x08007f5c       0x54 C:\gnat\2017\arm-eabi\lib\gnat\ravenscar-full-stm32f4\adalib\\libgnat.a(newlib-bb.o)
                0x08007f5c                _write
 .text._close   0x08007fb0        0x4 C:\gnat\2017\arm-eabi\lib\gnat\ravenscar-full-stm32f4\adalib\\libgnat.a(newlib-bb.o)
                0x08007fb0                _close
 .text._fstat   0x08007fb4        0x8 C:\gnat\2017\arm-eabi\lib\gnat\ravenscar-full-stm32f4\adalib\\libgnat.a(newlib-bb.o)
                0x08007fb4                _fstat
 .text._lseek   0x08007fbc       0x10 C:\gnat\2017\arm-eabi\lib\gnat\ravenscar-full-stm32f4\adalib\\libgnat.a(newlib-bb.o)
                0x08007fbc                _lseek
 .text._read    0x08007fcc       0x54 C:\gnat\2017\arm-eabi\lib\gnat\ravenscar-full-stm32f4\adalib\\libgnat.a(newlib-bb.o)
                0x08007fcc                _read
 .text._sbrk    0x08008020       0x20 C:\gnat\2017\arm-eabi\lib\gnat\ravenscar-full-stm32f4\adalib\\libgnat.a(newlib-bb.o)
                0x08008020                _sbrk
 .text          0x08008040      0x9bc c:/gnat/2017/bin/../lib/gcc/arm-eabi/6.3.1/armv7em/thumb/fpu/fpv4-sp-d16\libgcc.a(unwind-arm.o)
                0x080082f8                _Unwind_GetCFA
                0x080082fc                __gnu_Unwind_RaiseException
                0x0800835c                __gnu_Unwind_ForcedUnwind
                0x08008370                __gnu_Unwind_Resume
                0x080083b4                __gnu_Unwind_Resume_or_Rethrow
                0x080083c4                _Unwind_Complete
                0x080083c8                _Unwind_DeleteException
                0x080083d4                _Unwind_VRS_Get
                0x08008420                _Unwind_VRS_Set
                0x08008470                __gnu_Unwind_Backtrace
                0x080087b0                __aeabi_unwind_cpp_pr0
                0x080087b4                __aeabi_unwind_cpp_pr1
                0x080087b8                __aeabi_unwind_cpp_pr2
                0x080087bc                _Unwind_VRS_Pop
 .text          0x080089fc      0x1ac c:/gnat/2017/bin/../lib/gcc/arm-eabi/6.3.1/armv7em/thumb/fpu/fpv4-sp-d16\libgcc.a(libunwind.o)
                0x080089fc                __restore_core_regs
                0x080089fc                restore_core_regs
                0x08008a14                __gnu_Unwind_Restore_VFP
                0x08008a1c                __gnu_Unwind_Save_VFP
                0x08008a24                __gnu_Unwind_Restore_VFP_D
                0x08008a2c                __gnu_Unwind_Save_VFP_D
                0x08008a34                __gnu_Unwind_Restore_VFP_D_16_to_31
                0x08008a3c                __gnu_Unwind_Save_VFP_D_16_to_31
                0x08008a44                __gnu_Unwind_Restore_WMMXD
                0x08008a88                __gnu_Unwind_Save_WMMXD
                0x08008acc                __gnu_Unwind_Restore_WMMXC
                0x08008ae0                __gnu_Unwind_Save_WMMXC
                0x08008af4                ___Unwind_RaiseException
                0x08008af4                _Unwind_RaiseException
                0x08008b18                _Unwind_Resume
                0x08008b18                ___Unwind_Resume
                0x08008b3c                _Unwind_Resume_or_Rethrow
                0x08008b3c                ___Unwind_Resume_or_Rethrow
                0x08008b60                _Unwind_ForcedUnwind
                0x08008b60                ___Unwind_ForcedUnwind
                0x08008b84                ___Unwind_Backtrace
                0x08008b84                _Unwind_Backtrace
 .text          0x08008ba8      0x380 c:/gnat/2017/bin/../lib/gcc/arm-eabi/6.3.1/armv7em/thumb/fpu/fpv4-sp-d16\libgcc.a(pr-support.o)
                0x08008c00                __gnu_unwind_execute
                0x08008ed0                __gnu_unwind_frame
                0x08008ef8                _Unwind_GetRegionStart
                0x08008f04                _Unwind_GetLanguageSpecificData
                0x08008f18                _Unwind_GetTextRelBase
                0x08008f20                _Unwind_GetDataRelBase
 .text          0x08008f28        0xc c:/gnat/2017/bin/../lib/gcc/arm-eabi/6.3.1/../../../../arm-eabi/lib/armv7em/thumb/fpu/fpv4-sp-d16\libc.a(lib_a-errno.o)
                0x08008f28                __errno
 *(.gnu.warning)

.glue_7         0x08008f34        0x0
 .glue_7        0x08008f34        0x0 linker stubs

.glue_7t        0x08008f34        0x0
 .glue_7t       0x08008f34        0x0 linker stubs

.vfp11_veneer   0x08008f34        0x0
 .vfp11_veneer  0x08008f34        0x0 linker stubs

.v4_bx          0x08008f34        0x0
 .v4_bx         0x08008f34        0x0 linker stubs

.iplt           0x08008f34        0x0
 .iplt          0x08008f34        0x0 project_main.o

.ARM.extab      0x08008f34      0x620
 *(.ARM.extab* .gnu.linkonce.armextab.*)
 .ARM.extab     0x08008f34        0xc project_main.o
 .ARM.extab     0x08008f40        0xc b__project_main.o
 .ARM.extab     0x08008f4c       0x18 C:\Users\simon\OneDrive\Documents\STM32\System Project\obj\failure_types.o
 .ARM.extab     0x08008f64        0xc C:\Users\simon\OneDrive\Documents\STM32\System Project\obj\failure_log.o
 .ARM.extab     0x08008f70        0xc C:\Users\simon\OneDrive\Documents\STM32\System Project\obj\first_phase.o
 .ARM.extab     0x08008f7c       0x18 C:\Users\simon\OneDrive\Documents\STM32\System Project\obj\registers.o
 .ARM.extab     0x08008f94       0x18 C:\Users\simon\OneDrive\Documents\STM32\System Project\obj\signals.o
 .ARM.extab     0x08008fac       0x30 C:\Users\simon\OneDrive\Documents\STM32\System Project\obj\signal_register_database.o
 .ARM.extab     0x08008fdc       0x30 C:\Users\simon\OneDrive\Documents\STM32\System Project\obj\main_system_checks.o
 .ARM.extab.text._ada_setup_pll
                0x0800900c        0x0 C:\gnat\2017\arm-eabi\lib\gnat\ravenscar-full-stm32f4\adalib\\libgnat.a(setup_pll.o)
 .ARM.extab.text.abort
                0x0800900c        0x0 C:\gnat\2017\arm-eabi\lib\gnat\ravenscar-full-stm32f4\adalib\\libgnat.a(s-macres.o)
 .ARM.extab.text._exit
                0x0800900c        0x0 C:\gnat\2017\arm-eabi\lib\gnat\ravenscar-full-stm32f4\adalib\\libgnat.a(s-macres.o)
 .ARM.extab.text.system__machine_reset__stop
                0x0800900c        0x0 C:\gnat\2017\arm-eabi\lib\gnat\ravenscar-full-stm32f4\adalib\\libgnat.a(s-macres.o)
 .ARM.extab.text.system__tasking__E5sIP
                0x0800900c        0x0 C:\gnat\2017\arm-eabi\lib\gnat\ravenscar-full-stm32f4\adalib\\libgnat.a(s-taskin.o)
 .ARM.extab.text.system__tasking__entry_queueIP
                0x0800900c        0x0 C:\gnat\2017\arm-eabi\lib\gnat\ravenscar-full-stm32f4\adalib\\libgnat.a(s-taskin.o)
 .ARM.extab.text.system__tasking__activation_chainIP
                0x0800900c        0x0 C:\gnat\2017\arm-eabi\lib\gnat\ravenscar-full-stm32f4\adalib\\libgnat.a(s-taskin.o)
 .ARM.extab.text.__gnat_get_secondary_stack
                0x0800900c        0x0 C:\gnat\2017\arm-eabi\lib\gnat\ravenscar-full-stm32f4\adalib\\libgnat.a(s-taskin.o)
 .ARM.extab.text.system__tasking__initialize_atcb
                0x0800900c        0x0 C:\gnat\2017\arm-eabi\lib\gnat\ravenscar-full-stm32f4\adalib\\libgnat.a(s-taskin.o)
 .ARM.extab.text.system__tasking__initialize
                0x0800900c        0x0 C:\gnat\2017\arm-eabi\lib\gnat\ravenscar-full-stm32f4\adalib\\libgnat.a(s-taskin.o)
 .ARM.extab.text.system__tasking__self
                0x0800900c        0x0 C:\gnat\2017\arm-eabi\lib\gnat\ravenscar-full-stm32f4\adalib\\libgnat.a(s-taskin.o)
 .ARM.extab.text.system__tasking__set_sec_stack
                0x0800900c        0x0 C:\gnat\2017\arm-eabi\lib\gnat\ravenscar-full-stm32f4\adalib\\libgnat.a(s-taskin.o)
 .ARM.extab.text.system__tasking__storage_size
                0x0800900c        0x0 C:\gnat\2017\arm-eabi\lib\gnat\ravenscar-full-stm32f4\adalib\\libgnat.a(s-taskin.o)
 .ARM.extab.text.system__tasking__debug__add_task_id
                0x0800900c        0xc C:\gnat\2017\arm-eabi\lib\gnat\ravenscar-full-stm32f4\adalib\\libgnat.a(s-tasdeb.o)
 .ARM.extab.text.system__task_primitives__operations__Tidle_stacksBIP
                0x08009018        0x0 C:\gnat\2017\arm-eabi\lib\gnat\ravenscar-full-stm32f4\adalib\\libgnat.a(s-taprop.o)
 .ARM.extab.text.system__task_primitives__operations__Tidle_stacks_tableBIP
                0x08009018        0x0 C:\gnat\2017\arm-eabi\lib\gnat\ravenscar-full-stm32f4\adalib\\libgnat.a(s-taprop.o)
 .ARM.extab.text.system__task_primitives__operations__Tidle_tasksBIP
                0x08009018        0x0 C:\gnat\2017\arm-eabi\lib\gnat\ravenscar-full-stm32f4\adalib\\libgnat.a(s-taprop.o)
 .ARM.extab.text.system__task_primitives__operations__self
                0x08009018        0x0 C:\gnat\2017\arm-eabi\lib\gnat\ravenscar-full-stm32f4\adalib\\libgnat.a(s-taprop.o)
 .ARM.extab.text.system__task_primitives__operations__sleep
                0x08009018        0x0 C:\gnat\2017\arm-eabi\lib\gnat\ravenscar-full-stm32f4\adalib\\libgnat.a(s-taprop.o)
 .ARM.extab.text.system__task_primitives__operations__delay_until
                0x08009018        0x0 C:\gnat\2017\arm-eabi\lib\gnat\ravenscar-full-stm32f4\adalib\\libgnat.a(s-taprop.o)
 .ARM.extab.text.system__task_primitives__operations__monotonic_clock
                0x08009018        0x0 C:\gnat\2017\arm-eabi\lib\gnat\ravenscar-full-stm32f4\adalib\\libgnat.a(s-taprop.o)
 .ARM.extab.text.system__task_primitives__operations__wakeup
                0x08009018        0x0 C:\gnat\2017\arm-eabi\lib\gnat\ravenscar-full-stm32f4\adalib\\libgnat.a(s-taprop.o)
 .ARM.extab.text.system__task_primitives__operations__set_priority
                0x08009018        0xc C:\gnat\2017\arm-eabi\lib\gnat\ravenscar-full-stm32f4\adalib\\libgnat.a(s-taprop.o)
 .ARM.extab.text.system__task_primitives__operations__get_priority
                0x08009024        0x0 C:\gnat\2017\arm-eabi\lib\gnat\ravenscar-full-stm32f4\adalib\\libgnat.a(s-taprop.o)
 .ARM.extab.text.system__task_primitives__operations__get_affinity
                0x08009024        0x0 C:\gnat\2017\arm-eabi\lib\gnat\ravenscar-full-stm32f4\adalib\\libgnat.a(s-taprop.o)
 .ARM.extab.text.system__task_primitives__operations__get_cpu
                0x08009024        0x0 C:\gnat\2017\arm-eabi\lib\gnat\ravenscar-full-stm32f4\adalib\\libgnat.a(s-taprop.o)
 .ARM.extab.text.system__task_primitives__operations__get_thread_id
                0x08009024        0x0 C:\gnat\2017\arm-eabi\lib\gnat\ravenscar-full-stm32f4\adalib\\libgnat.a(s-taprop.o)
 .ARM.extab.text.system__task_primitives__operations__enter_task
                0x08009024        0xc C:\gnat\2017\arm-eabi\lib\gnat\ravenscar-full-stm32f4\adalib\\libgnat.a(s-taprop.o)
 .ARM.extab.text.system__task_primitives__operations__idle
                0x08009030        0xc C:\gnat\2017\arm-eabi\lib\gnat\ravenscar-full-stm32f4\adalib\\libgnat.a(s-taprop.o)
 .ARM.extab.text.system__task_primitives__operations__initialize_tcb
                0x0800903c        0x0 C:\gnat\2017\arm-eabi\lib\gnat\ravenscar-full-stm32f4\adalib\\libgnat.a(s-taprop.o)
 .ARM.extab.text.system__task_primitives__operations__create_task
                0x0800903c        0x0 C:\gnat\2017\arm-eabi\lib\gnat\ravenscar-full-stm32f4\adalib\\libgnat.a(s-taprop.o)
 .ARM.extab.text.system__task_primitives__operations__initialize_idle
                0x0800903c        0x0 C:\gnat\2017\arm-eabi\lib\gnat\ravenscar-full-stm32f4\adalib\\libgnat.a(s-taprop.o)
 .ARM.extab.text.__gnat_initialize_slave
                0x0800903c        0x0 C:\gnat\2017\arm-eabi\lib\gnat\ravenscar-full-stm32f4\adalib\\libgnat.a(s-taprop.o)
 .ARM.extab.text.system__task_primitives__operations__initialize
                0x0800903c        0x0 C:\gnat\2017\arm-eabi\lib\gnat\ravenscar-full-stm32f4\adalib\\libgnat.a(s-taprop.o)
 .ARM.extab.text.system__task_primitives__operations__is_task_context
                0x0800903c        0xc C:\gnat\2017\arm-eabi\lib\gnat\ravenscar-full-stm32f4\adalib\\libgnat.a(s-taprop.o)
 .ARM.extab.text.system__parameters__adjust_storage_size
                0x08009048        0x0 C:\gnat\2017\arm-eabi\lib\gnat\ravenscar-full-stm32f4\adalib\\libgnat.a(s-parame.o)
 .ARM.extab.text.__gnat_start_slave_cpus
                0x08009048        0x0 C:\gnat\2017\arm-eabi\lib\gnat\ravenscar-full-stm32f4\adalib\\libgnat.a(s-bcprmu.o)
 .ARM.extab.text.system__bb__cpu_primitives__multiprocessors__poke_handler
                0x08009048        0x0 C:\gnat\2017\arm-eabi\lib\gnat\ravenscar-full-stm32f4\adalib\\libgnat.a(s-bcprmu.o)
 .ARM.extab.text.system__bb__timing_events___size
                0x08009048        0x0 C:\gnat\2017\arm-eabi\lib\gnat\ravenscar-full-stm32f4\adalib\\libgnat.a(s-bbtiev.o)
 .ARM.extab.text.system__bb__timing_events__timing_eventDF
                0x08009048        0x0 C:\gnat\2017\arm-eabi\lib\gnat\ravenscar-full-stm32f4\adalib\\libgnat.a(s-bbtiev.o)
 .ARM.extab.text.system__bb__timing_events__current_handler
                0x08009048        0x0 C:\gnat\2017\arm-eabi\lib\gnat\ravenscar-full-stm32f4\adalib\\libgnat.a(s-bbtiev.o)
 .ARM.extab.text.system__bb__timing_events__time_of_event
                0x08009048        0x0 C:\gnat\2017\arm-eabi\lib\gnat\ravenscar-full-stm32f4\adalib\\libgnat.a(s-bbtiev.o)
 .ARM.extab.text.system__bb__timing_events__set_handler
                0x08009048        0x0 C:\gnat\2017\arm-eabi\lib\gnat\ravenscar-full-stm32f4\adalib\\libgnat.a(s-bbtiev.o)
 .ARM.extab.text.system__bb__timing_events__cancel_handler
                0x08009048        0xc C:\gnat\2017\arm-eabi\lib\gnat\ravenscar-full-stm32f4\adalib\\libgnat.a(s-bbtiev.o)
 .ARM.extab.text.system__bb__timing_events__timing_eventIP
                0x08009054        0x0 C:\gnat\2017\arm-eabi\lib\gnat\ravenscar-full-stm32f4\adalib\\libgnat.a(s-bbtiev.o)
 .ARM.extab.text.system__bb__timing_events__Ttiming_eventCFD
                0x08009054        0x0 C:\gnat\2017\arm-eabi\lib\gnat\ravenscar-full-stm32f4\adalib\\libgnat.a(s-bbtiev.o)
 .ARM.extab.text.system__bb__timing_events__finalize_spec
                0x08009054        0x0 C:\gnat\2017\arm-eabi\lib\gnat\ravenscar-full-stm32f4\adalib\\libgnat.a(s-bbtiev.o)
 .ARM.extab.text.system__bb__timing_events__execute_expired_timing_events
                0x08009054        0x0 C:\gnat\2017\arm-eabi\lib\gnat\ravenscar-full-stm32f4\adalib\\libgnat.a(s-bbtiev.o)
 .ARM.extab.text.system__bb__timing_events__get_next_timeout
                0x08009054        0x0 C:\gnat\2017\arm-eabi\lib\gnat\ravenscar-full-stm32f4\adalib\\libgnat.a(s-bbtiev.o)
 .ARM.extab.text.system__bb__timing_events___elabs
                0x08009054        0x0 C:\gnat\2017\arm-eabi\lib\gnat\ravenscar-full-stm32f4\adalib\\libgnat.a(s-bbtiev.o)
 .ARM.extab.text.system__bb__threads__thread_descriptorIP
                0x08009054        0x0 C:\gnat\2017\arm-eabi\lib\gnat\ravenscar-full-stm32f4\adalib\\libgnat.a(s-bbthre.o)
 .ARM.extab.text.system__bb__threads__get_affinity
                0x08009054        0x0 C:\gnat\2017\arm-eabi\lib\gnat\ravenscar-full-stm32f4\adalib\\libgnat.a(s-bbthre.o)
 .ARM.extab.text.system__bb__threads__get_cpu
                0x08009054        0x0 C:\gnat\2017\arm-eabi\lib\gnat\ravenscar-full-stm32f4\adalib\\libgnat.a(s-bbthre.o)
 .ARM.extab.text.system__bb__threads__get_atcb
                0x08009054        0x0 C:\gnat\2017\arm-eabi\lib\gnat\ravenscar-full-stm32f4\adalib\\libgnat.a(s-bbthre.o)
 .ARM.extab.text.system__bb__threads__get_priority
                0x08009054        0x0 C:\gnat\2017\arm-eabi\lib\gnat\ravenscar-full-stm32f4\adalib\\libgnat.a(s-bbthre.o)
 .ARM.extab.text.system__bb__threads__initialize
                0x08009054        0x0 C:\gnat\2017\arm-eabi\lib\gnat\ravenscar-full-stm32f4\adalib\\libgnat.a(s-bbthre.o)
 .ARM.extab.text.system__bb__threads__initialize_slave
                0x08009054        0x0 C:\gnat\2017\arm-eabi\lib\gnat\ravenscar-full-stm32f4\adalib\\libgnat.a(s-bbthre.o)
 .ARM.extab.text.system__bb__threads__set_atcb
                0x08009054        0x0 C:\gnat\2017\arm-eabi\lib\gnat\ravenscar-full-stm32f4\adalib\\libgnat.a(s-bbthre.o)
 .ARM.extab.text.system__bb__threads__set_priority
                0x08009054        0xc C:\gnat\2017\arm-eabi\lib\gnat\ravenscar-full-stm32f4\adalib\\libgnat.a(s-bbthre.o)
 .ARM.extab.text.system__bb__threads__sleep
                0x08009060        0x0 C:\gnat\2017\arm-eabi\lib\gnat\ravenscar-full-stm32f4\adalib\\libgnat.a(s-bbthre.o)
 .ARM.extab.text.system__bb__threads__thread_create
                0x08009060        0x0 C:\gnat\2017\arm-eabi\lib\gnat\ravenscar-full-stm32f4\adalib\\libgnat.a(s-bbthre.o)
 .ARM.extab.text.system__bb__threads__thread_self
                0x08009060        0x0 C:\gnat\2017\arm-eabi\lib\gnat\ravenscar-full-stm32f4\adalib\\libgnat.a(s-bbthre.o)
 .ARM.extab.text.system__bb__threads__wakeup
                0x08009060        0x0 C:\gnat\2017\arm-eabi\lib\gnat\ravenscar-full-stm32f4\adalib\\libgnat.a(s-bbthre.o)
 .ARM.extab.text.system__bb__threads__queues__change_priority
                0x08009060        0x0 C:\gnat\2017\arm-eabi\lib\gnat\ravenscar-full-stm32f4\adalib\\libgnat.a(s-bbthqu.o)
 .ARM.extab.text.__gnat_context_switch_needed
                0x08009060        0x0 C:\gnat\2017\arm-eabi\lib\gnat\ravenscar-full-stm32f4\adalib\\libgnat.a(s-bbthqu.o)
 .ARM.extab.text.system__bb__threads__queues__current_priority
                0x08009060        0x0 C:\gnat\2017\arm-eabi\lib\gnat\ravenscar-full-stm32f4\adalib\\libgnat.a(s-bbthqu.o)
 .ARM.extab.text.system__bb__threads__queues__extract
                0x08009060        0x0 C:\gnat\2017\arm-eabi\lib\gnat\ravenscar-full-stm32f4\adalib\\libgnat.a(s-bbthqu.o)
 .ARM.extab.text.system__bb__threads__queues__extract_first_alarm
                0x08009060        0x0 C:\gnat\2017\arm-eabi\lib\gnat\ravenscar-full-stm32f4\adalib\\libgnat.a(s-bbthqu.o)
 .ARM.extab.text.system__bb__threads__queues__first_thread
                0x08009060        0x0 C:\gnat\2017\arm-eabi\lib\gnat\ravenscar-full-stm32f4\adalib\\libgnat.a(s-bbthqu.o)
 .ARM.extab.text.system__bb__threads__queues__get_next_alarm_time
                0x08009060        0x0 C:\gnat\2017\arm-eabi\lib\gnat\ravenscar-full-stm32f4\adalib\\libgnat.a(s-bbthqu.o)
 .ARM.extab.text.system__bb__threads__queues__insert
                0x08009060        0x0 C:\gnat\2017\arm-eabi\lib\gnat\ravenscar-full-stm32f4\adalib\\libgnat.a(s-bbthqu.o)
 .ARM.extab.text.system__bb__threads__queues__insert_alarm
                0x08009060        0x0 C:\gnat\2017\arm-eabi\lib\gnat\ravenscar-full-stm32f4\adalib\\libgnat.a(s-bbthqu.o)
 .ARM.extab.text.system__bb__threads__queues__running_thread
                0x08009060        0x0 C:\gnat\2017\arm-eabi\lib\gnat\ravenscar-full-stm32f4\adalib\\libgnat.a(s-bbthqu.o)
 .ARM.extab.text.system__bb__threads__queues__wakeup_expired_alarms
                0x08009060        0x0 C:\gnat\2017\arm-eabi\lib\gnat\ravenscar-full-stm32f4\adalib\\libgnat.a(s-bbthqu.o)
 .ARM.extab.text.system__bb__threads__queues__yield
                0x08009060        0x0 C:\gnat\2017\arm-eabi\lib\gnat\ravenscar-full-stm32f4\adalib\\libgnat.a(s-bbthqu.o)
 .ARM.extab.text.system__bb__protection__enter_kernel
                0x08009060        0x0 C:\gnat\2017\arm-eabi\lib\gnat\ravenscar-full-stm32f4\adalib\\libgnat.a(s-bbprot.o)
 .ARM.extab.text.system__bb__protection__leave_kernel
                0x08009060        0x0 C:\gnat\2017\arm-eabi\lib\gnat\ravenscar-full-stm32f4\adalib\\libgnat.a(s-bbprot.o)
 .ARM.extab.text.system__standard_library__exception_dataIP
                0x08009060        0x0 C:\gnat\2017\arm-eabi\lib\gnat\ravenscar-full-stm32f4\adalib\\libgnat.a(s-stalib.o)
 .ARM.extab.text.system__standard_library__abort_undefer_direct
                0x08009060        0x0 C:\gnat\2017\arm-eabi\lib\gnat\ravenscar-full-stm32f4\adalib\\libgnat.a(s-stalib.o)
 .ARM.extab.text.system__standard_library__adafinal
                0x08009060        0x0 C:\gnat\2017\arm-eabi\lib\gnat\ravenscar-full-stm32f4\adalib\\libgnat.a(s-stalib.o)
 .ARM.extab.text.__gnat_break_start
                0x08009060        0x0 C:\gnat\2017\arm-eabi\lib\gnat\ravenscar-full-stm32f4\adalib\\libgnat.a(s-stalib.o)
 .ARM.extab.text.system__soft_links__abort_undefer_raven
                0x08009060        0x0 C:\gnat\2017\arm-eabi\lib\gnat\ravenscar-full-stm32f4\adalib\\libgnat.a(s-soflin.o)
 .ARM.extab.text.system__soft_links__get_current_excep_soft
                0x08009060        0x0 C:\gnat\2017\arm-eabi\lib\gnat\ravenscar-full-stm32f4\adalib\\libgnat.a(s-soflin.o)
 .ARM.extab.text.system__soft_links__adafinal_soft
                0x08009060        0x0 C:\gnat\2017\arm-eabi\lib\gnat\ravenscar-full-stm32f4\adalib\\libgnat.a(s-soflin.o)
 .ARM.extab.text.system__soft_links__task_lock_soft
                0x08009060        0x0 C:\gnat\2017\arm-eabi\lib\gnat\ravenscar-full-stm32f4\adalib\\libgnat.a(s-soflin.o)
 .ARM.extab.text.system__soft_links__task_termination_soft
                0x08009060        0x0 C:\gnat\2017\arm-eabi\lib\gnat\ravenscar-full-stm32f4\adalib\\libgnat.a(s-soflin.o)
 .ARM.extab.text.system__soft_links__task_unlock_soft
                0x08009060        0xc C:\gnat\2017\arm-eabi\lib\gnat\ravenscar-full-stm32f4\adalib\\libgnat.a(s-soflin.o)
 .ARM.extab.text.system__soft_links__abort_defer_raven
                0x0800906c        0x0 C:\gnat\2017\arm-eabi\lib\gnat\ravenscar-full-stm32f4\adalib\\libgnat.a(s-soflin.o)
 .ARM.extab.text.system__soft_links__get_gnat_exception
                0x0800906c        0x0 C:\gnat\2017\arm-eabi\lib\gnat\ravenscar-full-stm32f4\adalib\\libgnat.a(s-soflin.o)
 .ARM.extab.text.system__soft_links___elabs
                0x0800906c        0x0 C:\gnat\2017\arm-eabi\lib\gnat\ravenscar-full-stm32f4\adalib\\libgnat.a(s-soflin.o)
 .ARM.extab.text.__gnat_finalize
                0x0800906c        0x0 C:\gnat\2017\arm-eabi\lib\gnat\ravenscar-full-stm32f4\adalib\\libgnat.a(s-init.o)
 .ARM.extab.text.__gnat_initialize
                0x0800906c        0x0 C:\gnat\2017\arm-eabi\lib\gnat\ravenscar-full-stm32f4\adalib\\libgnat.a(s-init.o)
 .ARM.extab.text.__gnat_install_handler
                0x0800906c        0x0 C:\gnat\2017\arm-eabi\lib\gnat\ravenscar-full-stm32f4\adalib\\libgnat.a(s-init.o)
 .ARM.extab.text.__gnat_runtime_initialize
                0x0800906c        0x0 C:\gnat\2017\arm-eabi\lib\gnat\ravenscar-full-stm32f4\adalib\\libgnat.a(s-init.o)
 .ARM.extab.text.__gnat_runtime_finalize
                0x0800906c        0x0 C:\gnat\2017\arm-eabi\lib\gnat\ravenscar-full-stm32f4\adalib\\libgnat.a(s-init.o)
 .ARM.extab.text.system__exception_table__register.part.1
                0x0800906c        0x0 C:\gnat\2017\arm-eabi\lib\gnat\ravenscar-full-stm32f4\adalib\\libgnat.a(s-exctab.o)
 .ARM.extab.text.system__exception_table__exception_data_arrayIP
                0x0800906c        0x0 C:\gnat\2017\arm-eabi\lib\gnat\ravenscar-full-stm32f4\adalib\\libgnat.a(s-exctab.o)
 .ARM.extab.text.system__exception_table__ThtableBIP
                0x0800906c        0x0 C:\gnat\2017\arm-eabi\lib\gnat\ravenscar-full-stm32f4\adalib\\libgnat.a(s-exctab.o)
 .ARM.extab.text.system__exception_table__has_name
                0x0800906c        0x0 C:\gnat\2017\arm-eabi\lib\gnat\ravenscar-full-stm32f4\adalib\\libgnat.a(s-exctab.o)
 .ARM.extab.text.system__exception_table__lookup
                0x0800906c        0x0 C:\gnat\2017\arm-eabi\lib\gnat\ravenscar-full-stm32f4\adalib\\libgnat.a(s-exctab.o)
 .ARM.extab.text.system__exception_table__hash
                0x0800906c        0x0 C:\gnat\2017\arm-eabi\lib\gnat\ravenscar-full-stm32f4\adalib\\libgnat.a(s-exctab.o)
 .ARM.extab.text.system__exception_table__register
                0x0800906c        0x0 C:\gnat\2017\arm-eabi\lib\gnat\ravenscar-full-stm32f4\adalib\\libgnat.a(s-exctab.o)
 .ARM.extab.text.system__exception_table__get_registered_exceptions
                0x0800906c        0x0 C:\gnat\2017\arm-eabi\lib\gnat\ravenscar-full-stm32f4\adalib\\libgnat.a(s-exctab.o)
 .ARM.extab.text.system__exception_table__internal_exception
                0x0800906c        0x0 C:\gnat\2017\arm-eabi\lib\gnat\ravenscar-full-stm32f4\adalib\\libgnat.a(s-exctab.o)
 .ARM.extab.text.system__exception_table__register_exception
                0x0800906c        0x0 C:\gnat\2017\arm-eabi\lib\gnat\ravenscar-full-stm32f4\adalib\\libgnat.a(s-exctab.o)
 .ARM.extab.text.system__exception_table__registered_exceptions_count
                0x0800906c        0x0 C:\gnat\2017\arm-eabi\lib\gnat\ravenscar-full-stm32f4\adalib\\libgnat.a(s-exctab.o)
 .ARM.extab.text.system__exception_table___elabb
                0x0800906c        0xc C:\gnat\2017\arm-eabi\lib\gnat\ravenscar-full-stm32f4\adalib\\libgnat.a(s-exctab.o)
 .ARM.extab.text.ada__tags__iw_membership__2
                0x08009078        0x0 C:\gnat\2017\arm-eabi\lib\gnat\ravenscar-full-stm32f4\adalib\\libgnat.a(a-tags.o)
 .ARM.extab.text.ada__tags__tag_arrayIP
                0x08009078        0x0 C:\gnat\2017\arm-eabi\lib\gnat\ravenscar-full-stm32f4\adalib\\libgnat.a(a-tags.o)
 .ARM.extab.text.ada__tags__interface_data_elementIP
                0x08009078        0x0 C:\gnat\2017\arm-eabi\lib\gnat\ravenscar-full-stm32f4\adalib\\libgnat.a(a-tags.o)
 .ARM.extab.text.ada__tags__interfaces_arrayIP
                0x08009078        0x0 C:\gnat\2017\arm-eabi\lib\gnat\ravenscar-full-stm32f4\adalib\\libgnat.a(a-tags.o)
 .ARM.extab.text.ada__tags__interface_dataIP
                0x08009078        0x0 C:\gnat\2017\arm-eabi\lib\gnat\ravenscar-full-stm32f4\adalib\\libgnat.a(a-tags.o)
 .ARM.extab.text.ada__tags__select_specific_data_elementIP
                0x08009078        0x0 C:\gnat\2017\arm-eabi\lib\gnat\ravenscar-full-stm32f4\adalib\\libgnat.a(a-tags.o)
 .ARM.extab.text.ada__tags__select_specific_data_arrayIP
                0x08009078        0x0 C:\gnat\2017\arm-eabi\lib\gnat\ravenscar-full-stm32f4\adalib\\libgnat.a(a-tags.o)
 .ARM.extab.text.ada__tags__select_specific_dataIP
                0x08009078        0x0 C:\gnat\2017\arm-eabi\lib\gnat\ravenscar-full-stm32f4\adalib\\libgnat.a(a-tags.o)
 .ARM.extab.text.ada__tags__address_arrayIP
                0x08009078        0x0 C:\gnat\2017\arm-eabi\lib\gnat\ravenscar-full-stm32f4\adalib\\libgnat.a(a-tags.o)
 .ARM.extab.text.ada__tags__tag_tableIP
                0x08009078        0x0 C:\gnat\2017\arm-eabi\lib\gnat\ravenscar-full-stm32f4\adalib\\libgnat.a(a-tags.o)
 .ARM.extab.text.ada__tags__type_specific_dataIP
                0x08009078        0x0 C:\gnat\2017\arm-eabi\lib\gnat\ravenscar-full-stm32f4\adalib\\libgnat.a(a-tags.o)
 .ARM.extab.text.ada__tags__dispatch_table_wrapperIP
                0x08009078        0x0 C:\gnat\2017\arm-eabi\lib\gnat\ravenscar-full-stm32f4\adalib\\libgnat.a(a-tags.o)
 .ARM.extab.text.ada__tags__no_dispatch_table_wrapperIP
                0x08009078        0x0 C:\gnat\2017\arm-eabi\lib\gnat\ravenscar-full-stm32f4\adalib\\libgnat.a(a-tags.o)
 .ARM.extab.text.ada__tags__object_specific_data_arrayIP
                0x08009078        0x0 C:\gnat\2017\arm-eabi\lib\gnat\ravenscar-full-stm32f4\adalib\\libgnat.a(a-tags.o)
 .ARM.extab.text.ada__tags__object_specific_dataIP
                0x08009078        0x0 C:\gnat\2017\arm-eabi\lib\gnat\ravenscar-full-stm32f4\adalib\\libgnat.a(a-tags.o)
 .ARM.extab.text.ada__tags__external_tag_htable__TtableBIPXn
                0x08009078        0x0 C:\gnat\2017\arm-eabi\lib\gnat\ravenscar-full-stm32f4\adalib\\libgnat.a(a-tags.o)
 .ARM.extab.text.ada__tags__external_tag_htable__get_firstXn
                0x08009078        0x0 C:\gnat\2017\arm-eabi\lib\gnat\ravenscar-full-stm32f4\adalib\\libgnat.a(a-tags.o)
 .ARM.extab.text.ada__tags__external_tag_htable__get_nextXn
                0x08009078        0x0 C:\gnat\2017\arm-eabi\lib\gnat\ravenscar-full-stm32f4\adalib\\libgnat.a(a-tags.o)
 .ARM.extab.text.ada__tags__external_tag_htable__get_non_nullXn
                0x08009078        0x0 C:\gnat\2017\arm-eabi\lib\gnat\ravenscar-full-stm32f4\adalib\\libgnat.a(a-tags.o)
 .ARM.extab.text.ada__tags__external_tag_htable__resetXn
                0x08009078        0x0 C:\gnat\2017\arm-eabi\lib\gnat\ravenscar-full-stm32f4\adalib\\libgnat.a(a-tags.o)
 .ARM.extab.text.ada__tags__htable_subprograms__equalXn
                0x08009078        0x0 C:\gnat\2017\arm-eabi\lib\gnat\ravenscar-full-stm32f4\adalib\\libgnat.a(a-tags.o)
 .ARM.extab.text.ada__tags__htable_subprograms__get_ht_linkXn
                0x08009078        0x0 C:\gnat\2017\arm-eabi\lib\gnat\ravenscar-full-stm32f4\adalib\\libgnat.a(a-tags.o)
 .ARM.extab.text.ada__tags__htable_subprograms__hashXn
                0x08009078        0x0 C:\gnat\2017\arm-eabi\lib\gnat\ravenscar-full-stm32f4\adalib\\libgnat.a(a-tags.o)
 .ARM.extab.text.ada__tags__external_tag_htable__getXn
                0x08009078        0x0 C:\gnat\2017\arm-eabi\lib\gnat\ravenscar-full-stm32f4\adalib\\libgnat.a(a-tags.o)
 .ARM.extab.text.ada__tags__external_tag_htable__presentXn
                0x08009078        0xc C:\gnat\2017\arm-eabi\lib\gnat\ravenscar-full-stm32f4\adalib\\libgnat.a(a-tags.o)
 .ARM.extab.text.ada__tags__external_tag_htable__removeXn
                0x08009084        0x0 C:\gnat\2017\arm-eabi\lib\gnat\ravenscar-full-stm32f4\adalib\\libgnat.a(a-tags.o)
 .ARM.extab.text.ada__tags__external_tag_htable__setXn
                0x08009084        0x0 C:\gnat\2017\arm-eabi\lib\gnat\ravenscar-full-stm32f4\adalib\\libgnat.a(a-tags.o)
 .ARM.extab.text.ada__tags__external_tag_htable__set_if_not_presentXn
                0x08009084        0x0 C:\gnat\2017\arm-eabi\lib\gnat\ravenscar-full-stm32f4\adalib\\libgnat.a(a-tags.o)
 .ARM.extab.text.ada__tags__htable_subprograms__set_ht_linkXn
                0x08009084        0x0 C:\gnat\2017\arm-eabi\lib\gnat\ravenscar-full-stm32f4\adalib\\libgnat.a(a-tags.o)
 .ARM.extab.text.ada__tags__is_abstract
                0x08009084        0xc C:\gnat\2017\arm-eabi\lib\gnat\ravenscar-full-stm32f4\adalib\\libgnat.a(a-tags.o)
 .ARM.extab.text.ada__tags__base_address
                0x08009090        0x0 C:\gnat\2017\arm-eabi\lib\gnat\ravenscar-full-stm32f4\adalib\\libgnat.a(a-tags.o)
 .ARM.extab.text.ada__tags__check_tsd
                0x08009090        0x0 C:\gnat\2017\arm-eabi\lib\gnat\ravenscar-full-stm32f4\adalib\\libgnat.a(a-tags.o)
 .ARM.extab.text.ada__tags__displace
                0x08009090        0x0 C:\gnat\2017\arm-eabi\lib\gnat\ravenscar-full-stm32f4\adalib\\libgnat.a(a-tags.o)
 .ARM.extab.text.ada__tags__dt
                0x08009090        0x0 C:\gnat\2017\arm-eabi\lib\gnat\ravenscar-full-stm32f4\adalib\\libgnat.a(a-tags.o)
 .ARM.extab.text.ada__tags__iw_membership
                0x08009090        0x0 C:\gnat\2017\arm-eabi\lib\gnat\ravenscar-full-stm32f4\adalib\\libgnat.a(a-tags.o)
 .ARM.extab.text.ada__tags__expanded_name
                0x08009090        0x0 C:\gnat\2017\arm-eabi\lib\gnat\ravenscar-full-stm32f4\adalib\\libgnat.a(a-tags.o)
 .ARM.extab.text.ada__tags__external_tag
                0x08009090        0x0 C:\gnat\2017\arm-eabi\lib\gnat\ravenscar-full-stm32f4\adalib\\libgnat.a(a-tags.o)
 .ARM.extab.text.ada__tags__get_entry_index
                0x08009090        0x0 C:\gnat\2017\arm-eabi\lib\gnat\ravenscar-full-stm32f4\adalib\\libgnat.a(a-tags.o)
 .ARM.extab.text.ada__tags__get_prim_op_kind
                0x08009090        0x0 C:\gnat\2017\arm-eabi\lib\gnat\ravenscar-full-stm32f4\adalib\\libgnat.a(a-tags.o)
 .ARM.extab.text.ada__tags__get_offset_index
                0x08009090        0x0 C:\gnat\2017\arm-eabi\lib\gnat\ravenscar-full-stm32f4\adalib\\libgnat.a(a-tags.o)
 .ARM.extab.text.ada__tags__get_tagged_kind
                0x08009090        0x0 C:\gnat\2017\arm-eabi\lib\gnat\ravenscar-full-stm32f4\adalib\\libgnat.a(a-tags.o)
 .ARM.extab.text.ada__tags__interface_ancestor_tags
                0x08009090        0x0 C:\gnat\2017\arm-eabi\lib\gnat\ravenscar-full-stm32f4\adalib\\libgnat.a(a-tags.o)
 .ARM.extab.text.ada__tags__internal_tag
                0x08009090        0x0 C:\gnat\2017\arm-eabi\lib\gnat\ravenscar-full-stm32f4\adalib\\libgnat.a(a-tags.o)
 .ARM.extab.text.ada__tags__is_descendant_at_same_level
                0x08009090        0x0 C:\gnat\2017\arm-eabi\lib\gnat\ravenscar-full-stm32f4\adalib\\libgnat.a(a-tags.o)
 .ARM.extab.text.ada__tags__descendant_tag
                0x08009090        0x0 C:\gnat\2017\arm-eabi\lib\gnat\ravenscar-full-stm32f4\adalib\\libgnat.a(a-tags.o)
 .ARM.extab.text.ada__tags__offset_to_top
                0x08009090        0x0 C:\gnat\2017\arm-eabi\lib\gnat\ravenscar-full-stm32f4\adalib\\libgnat.a(a-tags.o)
 .ARM.extab.text.ada__tags__needs_finalization
                0x08009090        0x0 C:\gnat\2017\arm-eabi\lib\gnat\ravenscar-full-stm32f4\adalib\\libgnat.a(a-tags.o)
 .ARM.extab.text.ada__tags__parent_size
                0x08009090        0xc C:\gnat\2017\arm-eabi\lib\gnat\ravenscar-full-stm32f4\adalib\\libgnat.a(a-tags.o)
 .ARM.extab.text.ada__tags__parent_tag
                0x0800909c        0xc C:\gnat\2017\arm-eabi\lib\gnat\ravenscar-full-stm32f4\adalib\\libgnat.a(a-tags.o)
 .ARM.extab.text.ada__tags__register_interface_offset
                0x080090a8        0x0 C:\gnat\2017\arm-eabi\lib\gnat\ravenscar-full-stm32f4\adalib\\libgnat.a(a-tags.o)
 .ARM.extab.text.ada__tags__register_tag
                0x080090a8        0x0 C:\gnat\2017\arm-eabi\lib\gnat\ravenscar-full-stm32f4\adalib\\libgnat.a(a-tags.o)
 .ARM.extab.text.ada__tags__secondary_tag
                0x080090a8        0x0 C:\gnat\2017\arm-eabi\lib\gnat\ravenscar-full-stm32f4\adalib\\libgnat.a(a-tags.o)
 .ARM.extab.text.ada__tags__set_entry_index
                0x080090a8        0x0 C:\gnat\2017\arm-eabi\lib\gnat\ravenscar-full-stm32f4\adalib\\libgnat.a(a-tags.o)
 .ARM.extab.text.ada__tags__set_dynamic_offset_to_top
                0x080090a8        0x0 C:\gnat\2017\arm-eabi\lib\gnat\ravenscar-full-stm32f4\adalib\\libgnat.a(a-tags.o)
 .ARM.extab.text.ada__tags__set_prim_op_kind
                0x080090a8        0x0 C:\gnat\2017\arm-eabi\lib\gnat\ravenscar-full-stm32f4\adalib\\libgnat.a(a-tags.o)
 .ARM.extab.text.ada__tags__unregister_tag
                0x080090a8        0x0 C:\gnat\2017\arm-eabi\lib\gnat\ravenscar-full-stm32f4\adalib\\libgnat.a(a-tags.o)
 .ARM.extab.text.ada__tags__wide_expanded_name
                0x080090a8        0x0 C:\gnat\2017\arm-eabi\lib\gnat\ravenscar-full-stm32f4\adalib\\libgnat.a(a-tags.o)
 .ARM.extab.text.ada__tags__wide_wide_expanded_name
                0x080090a8        0x0 C:\gnat\2017\arm-eabi\lib\gnat\ravenscar-full-stm32f4\adalib\\libgnat.a(a-tags.o)
 .ARM.extab.text.ada__tags___elabb
                0x080090a8        0x0 C:\gnat\2017\arm-eabi\lib\gnat\ravenscar-full-stm32f4\adalib\\libgnat.a(a-tags.o)
 .ARM.extab.text.ada__exceptions__exception_occurrenceIP
                0x080090a8        0x0 C:\gnat\2017\arm-eabi\lib\gnat\ravenscar-full-stm32f4\adalib\\libgnat.a(a-except.o)
 .ARM.extab.text.ada__exceptions__exception_data__append_info_addressXn
                0x080090a8        0x0 C:\gnat\2017\arm-eabi\lib\gnat\ravenscar-full-stm32f4\adalib\\libgnat.a(a-except.o)
 .ARM.extab.text.ada__exceptions__exception_data__append_info_basic_exception_informationXn
                0x080090a8        0x0 C:\gnat\2017\arm-eabi\lib\gnat\ravenscar-full-stm32f4\adalib\\libgnat.a(a-except.o)
 .ARM.extab.text.ada__exceptions__exception_data__append_info_characterXn
                0x080090a8        0x0 C:\gnat\2017\arm-eabi\lib\gnat\ravenscar-full-stm32f4\adalib\\libgnat.a(a-except.o)
 .ARM.extab.text.__gnat_append_info_e_msg
                0x080090a8        0x0 C:\gnat\2017\arm-eabi\lib\gnat\ravenscar-full-stm32f4\adalib\\libgnat.a(a-except.o)
 .ARM.extab.text.ada__exceptions__exception_data__append_info_exception_nameXn
                0x080090a8        0x0 C:\gnat\2017\arm-eabi\lib\gnat\ravenscar-full-stm32f4\adalib\\libgnat.a(a-except.o)
 .ARM.extab.text.ada__exceptions__exception_data__append_info_exception_name__2Xn
                0x080090a8        0xc C:\gnat\2017\arm-eabi\lib\gnat\ravenscar-full-stm32f4\adalib\\libgnat.a(a-except.o)
 .ARM.extab.text.ada__exceptions__exception_data__exception_info_maxlengthXn
                0x080090b4        0x0 C:\gnat\2017\arm-eabi\lib\gnat\ravenscar-full-stm32f4\adalib\\libgnat.a(a-except.o)
 .ARM.extab.text.ada__exceptions__exception_data__append_info_natXn
                0x080090b4        0x0 C:\gnat\2017\arm-eabi\lib\gnat\ravenscar-full-stm32f4\adalib\\libgnat.a(a-except.o)
 .ARM.extab.text.ada__exceptions__exception_data__append_info_nlXn
                0x080090b4        0xc C:\gnat\2017\arm-eabi\lib\gnat\ravenscar-full-stm32f4\adalib\\libgnat.a(a-except.o)
 .ARM.extab.text.ada__exceptions__exception_data__append_info_stringXn
                0x080090c0        0x0 C:\gnat\2017\arm-eabi\lib\gnat\ravenscar-full-stm32f4\adalib\\libgnat.a(a-except.o)
 .ARM.extab.text.__gnat_append_info_u_e_info
                0x080090c0        0x0 C:\gnat\2017\arm-eabi\lib\gnat\ravenscar-full-stm32f4\adalib\\libgnat.a(a-except.o)
 .ARM.extab.text.ada__exceptions__exception_data__append_info_untailored_exception_tracebackXn
                0x080090c0        0x0 C:\gnat\2017\arm-eabi\lib\gnat\ravenscar-full-stm32f4\adalib\\libgnat.a(a-except.o)
 .ARM.extab.text.ada__exceptions__exception_data__basic_exception_info_maxlengthXn
                0x080090c0        0x0 C:\gnat\2017\arm-eabi\lib\gnat\ravenscar-full-stm32f4\adalib\\libgnat.a(a-except.o)
 .ARM.extab.text.ada__exceptions__exception_data__exception_informationXn
                0x080090c0        0x0 C:\gnat\2017\arm-eabi\lib\gnat\ravenscar-full-stm32f4\adalib\\libgnat.a(a-except.o)
 .ARM.extab.text.__gnat_exception_msg_len
                0x080090c0        0x0 C:\gnat\2017\arm-eabi\lib\gnat\ravenscar-full-stm32f4\adalib\\libgnat.a(a-except.o)
 .ARM.extab.text.ada__exceptions__exception_data__exception_name_lengthXn
                0x080090c0        0x0 C:\gnat\2017\arm-eabi\lib\gnat\ravenscar-full-stm32f4\adalib\\libgnat.a(a-except.o)
 .ARM.extab.text.ada__exceptions__exception_data__exception_name_length__2Xn
                0x080090c0        0xc C:\gnat\2017\arm-eabi\lib\gnat\ravenscar-full-stm32f4\adalib\\libgnat.a(a-except.o)
 .ARM.extab.text.ada__exceptions__exception_data__untailored_exception_tracebackXn
                0x080090cc        0x0 C:\gnat\2017\arm-eabi\lib\gnat\ravenscar-full-stm32f4\adalib\\libgnat.a(a-except.o)
 .ARM.extab.text.ada__exceptions__exception_data__untailored_exception_informationXn
                0x080090cc        0x0 C:\gnat\2017\arm-eabi\lib\gnat\ravenscar-full-stm32f4\adalib\\libgnat.a(a-except.o)
 .ARM.extab.text.ada__exceptions__exception_data__set_exception_c_msg__append_number.6443
                0x080090cc        0x0 C:\gnat\2017\arm-eabi\lib\gnat\ravenscar-full-stm32f4\adalib\\libgnat.a(a-except.o)
 .ARM.extab.text.ada__exceptions__exception_data__set_exception_c_msgXn
                0x080090cc        0x0 C:\gnat\2017\arm-eabi\lib\gnat\ravenscar-full-stm32f4\adalib\\libgnat.a(a-except.o)
 .ARM.extab.text.ada__exceptions__exception_data__set_exception_msgXn
                0x080090cc        0x0 C:\gnat\2017\arm-eabi\lib\gnat\ravenscar-full-stm32f4\adalib\\libgnat.a(a-except.o)
 .ARM.extab.text.ada__exceptions__exception_data__tailored_exception_tracebackXn
                0x080090cc        0x0 C:\gnat\2017\arm-eabi\lib\gnat\ravenscar-full-stm32f4\adalib\\libgnat.a(a-except.o)
 .ARM.extab.text.ada__exceptions__exception_data__untailored_exception_traceback_maxlengthXn
                0x080090cc        0x0 C:\gnat\2017\arm-eabi\lib\gnat\ravenscar-full-stm32f4\adalib\\libgnat.a(a-except.o)
 .ARM.extab.text.ada__exceptions__exception_propagation__allocate_occurrenceXn
                0x080090cc        0xc C:\gnat\2017\arm-eabi\lib\gnat\ravenscar-full-stm32f4\adalib\\libgnat.a(a-except.o)
 .ARM.extab.text.ada__exceptions__exception_propagation__gnat_gcc_exception_cleanupXn
                0x080090d8        0xc C:\gnat\2017\arm-eabi\lib\gnat\ravenscar-full-stm32f4\adalib\\libgnat.a(a-except.o)
 .ARM.extab.text.ada__exceptions__exception_propagation__set_foreign_occurrenceXn
                0x080090e4        0x0 C:\gnat\2017\arm-eabi\lib\gnat\ravenscar-full-stm32f4\adalib\\libgnat.a(a-except.o)
 .ARM.extab.text.__gnat_setup_current_excep
                0x080090e4        0x0 C:\gnat\2017\arm-eabi\lib\gnat\ravenscar-full-stm32f4\adalib\\libgnat.a(a-except.o)
 .ARM.extab.text.__gnat_begin_handler
                0x080090e4        0x0 C:\gnat\2017\arm-eabi\lib\gnat\ravenscar-full-stm32f4\adalib\\libgnat.a(a-except.o)
 .ARM.extab.text.__gnat_end_handler
                0x080090e4        0xc C:\gnat\2017\arm-eabi\lib\gnat\ravenscar-full-stm32f4\adalib\\libgnat.a(a-except.o)
 .ARM.extab.text.__gnat_reraise_zcx
                0x080090f0        0xc C:\gnat\2017\arm-eabi\lib\gnat\ravenscar-full-stm32f4\adalib\\libgnat.a(a-except.o)
 .ARM.extab.text.ada__exceptions__exception_propagation__propagate_gcc_exceptionXn
                0x080090fc        0x0 C:\gnat\2017\arm-eabi\lib\gnat\ravenscar-full-stm32f4\adalib\\libgnat.a(a-except.o)
 .ARM.extab.text.ada__exceptions__exception_propagation__propagate_exceptionXn
                0x080090fc        0xc C:\gnat\2017\arm-eabi\lib\gnat\ravenscar-full-stm32f4\adalib\\libgnat.a(a-except.o)
 .ARM.extab.text.__gnat_set_exception_parameter
                0x08009108        0x0 C:\gnat\2017\arm-eabi\lib\gnat\ravenscar-full-stm32f4\adalib\\libgnat.a(a-except.o)
 .ARM.extab.text.__gnat_unhandled_except_handler
                0x08009108        0xc C:\gnat\2017\arm-eabi\lib\gnat\ravenscar-full-stm32f4\adalib\\libgnat.a(a-except.o)
 .ARM.extab.text.__gnat_eid_for
                0x08009114        0x0 C:\gnat\2017\arm-eabi\lib\gnat\ravenscar-full-stm32f4\adalib\\libgnat.a(a-except.o)
 .ARM.extab.text.__gnat_foreign_data_for
                0x08009114        0x0 C:\gnat\2017\arm-eabi\lib\gnat\ravenscar-full-stm32f4\adalib\\libgnat.a(a-except.o)
 .ARM.extab.text.__gnat_is_handled_by_others
                0x08009114        0x0 C:\gnat\2017\arm-eabi\lib\gnat\ravenscar-full-stm32f4\adalib\\libgnat.a(a-except.o)
 .ARM.extab.text.__gnat_language_for
                0x08009114        0x0 C:\gnat\2017\arm-eabi\lib\gnat\ravenscar-full-stm32f4\adalib\\libgnat.a(a-except.o)
 .ARM.extab.text.ada__exceptions__exception_traces__notify_exception__B277b___finalizerXn.6702
                0x08009114        0xc C:\gnat\2017\arm-eabi\lib\gnat\ravenscar-full-stm32f4\adalib\\libgnat.a(a-except.o)
 .ARM.extab.text.ada__exceptions__exception_traces__notify_exceptionXn
                0x08009120       0x1c C:\gnat\2017\arm-eabi\lib\gnat\ravenscar-full-stm32f4\adalib\\libgnat.a(a-except.o)
 .ARM.extab.text.__gnat_notify_handled_exception
                0x0800913c        0xc C:\gnat\2017\arm-eabi\lib\gnat\ravenscar-full-stm32f4\adalib\\libgnat.a(a-except.o)
 .ARM.extab.text.__gnat_notify_unhandled_exception
                0x08009148        0x0 C:\gnat\2017\arm-eabi\lib\gnat\ravenscar-full-stm32f4\adalib\\libgnat.a(a-except.o)
 .ARM.extab.text.ada__exceptions__exception_traces__unhandled_exception_terminateXn
                0x08009148        0x0 C:\gnat\2017\arm-eabi\lib\gnat\ravenscar-full-stm32f4\adalib\\libgnat.a(a-except.o)
 .ARM.extab.text.ada__exceptions__stream_attributes__eid_to_stringXn
                0x08009148        0x0 C:\gnat\2017\arm-eabi\lib\gnat\ravenscar-full-stm32f4\adalib\\libgnat.a(a-except.o)
 .ARM.extab.text.ada__exceptions__stream_attributes__eo_to_stringXn
                0x08009148        0x0 C:\gnat\2017\arm-eabi\lib\gnat\ravenscar-full-stm32f4\adalib\\libgnat.a(a-except.o)
 .ARM.extab.text.ada__exceptions__stream_attributes__string_to_eidXn
                0x08009148        0xc C:\gnat\2017\arm-eabi\lib\gnat\ravenscar-full-stm32f4\adalib\\libgnat.a(a-except.o)
 .ARM.extab.text.ada__exceptions__stream_attributes__string_to_eo__bad_eo.6747
                0x08009154        0xc C:\gnat\2017\arm-eabi\lib\gnat\ravenscar-full-stm32f4\adalib\\libgnat.a(a-except.o)
 .ARM.extab.text.ada__exceptions__stream_attributes__string_to_eoXn
                0x08009160        0x0 C:\gnat\2017\arm-eabi\lib\gnat\ravenscar-full-stm32f4\adalib\\libgnat.a(a-except.o)
 .ARM.extab.text.ada__exceptions__stream_attributes__string_to_eo__next_string.6749
                0x08009160        0x0 C:\gnat\2017\arm-eabi\lib\gnat\ravenscar-full-stm32f4\adalib\\libgnat.a(a-except.o)
 .ARM.extab.text.ada__exceptions__poll
                0x08009160        0x0 C:\gnat\2017\arm-eabi\lib\gnat\ravenscar-full-stm32f4\adalib\\libgnat.a(a-except.o)
 .ARM.extab.text.ada__exceptions__code_address_for_aaa
                0x08009160        0x0 C:\gnat\2017\arm-eabi\lib\gnat\ravenscar-full-stm32f4\adalib\\libgnat.a(a-except.o)
 .ARM.extab.text.ada__exceptions__call_chain
                0x08009160        0x0 C:\gnat\2017\arm-eabi\lib\gnat\ravenscar-full-stm32f4\adalib\\libgnat.a(a-except.o)
 .ARM.extab.text.ada__exceptions__eid_to_string
                0x08009160        0x0 C:\gnat\2017\arm-eabi\lib\gnat\ravenscar-full-stm32f4\adalib\\libgnat.a(a-except.o)
 .ARM.extab.text.ada__exceptions__eo_to_string
                0x08009160        0x0 C:\gnat\2017\arm-eabi\lib\gnat\ravenscar-full-stm32f4\adalib\\libgnat.a(a-except.o)
 .ARM.extab.text.ada__exceptions__exception_identity
                0x08009160        0x0 C:\gnat\2017\arm-eabi\lib\gnat\ravenscar-full-stm32f4\adalib\\libgnat.a(a-except.o)
 .ARM.extab.text.ada__exceptions__exception_information
                0x08009160        0x0 C:\gnat\2017\arm-eabi\lib\gnat\ravenscar-full-stm32f4\adalib\\libgnat.a(a-except.o)
 .ARM.extab.text.ada__exceptions__exception_message
                0x08009160        0x0 C:\gnat\2017\arm-eabi\lib\gnat\ravenscar-full-stm32f4\adalib\\libgnat.a(a-except.o)
 .ARM.extab.text.ada__exceptions__exception_name
                0x08009160        0x0 C:\gnat\2017\arm-eabi\lib\gnat\ravenscar-full-stm32f4\adalib\\libgnat.a(a-except.o)
 .ARM.extab.text.ada__exceptions__exception_name__2
                0x08009160        0x0 C:\gnat\2017\arm-eabi\lib\gnat\ravenscar-full-stm32f4\adalib\\libgnat.a(a-except.o)
 .ARM.extab.text.ada__exceptions__exception_name_simple
                0x08009160        0x0 C:\gnat\2017\arm-eabi\lib\gnat\ravenscar-full-stm32f4\adalib\\libgnat.a(a-except.o)
 .ARM.extab.text.__gnat_get_exception_machine_occurrence
                0x08009160        0x0 C:\gnat\2017\arm-eabi\lib\gnat\ravenscar-full-stm32f4\adalib\\libgnat.a(a-except.o)
 .ARM.extab.text.ada__exceptions__image
                0x08009160        0x0 C:\gnat\2017\arm-eabi\lib\gnat\ravenscar-full-stm32f4\adalib\\libgnat.a(a-except.o)
 .ARM.extab.text.__gnat_raise_constraint_error
                0x08009160        0x0 C:\gnat\2017\arm-eabi\lib\gnat\ravenscar-full-stm32f4\adalib\\libgnat.a(a-except.o)
 .ARM.extab.text.__gnat_raise_constraint_error_msg
                0x08009160        0x0 C:\gnat\2017\arm-eabi\lib\gnat\ravenscar-full-stm32f4\adalib\\libgnat.a(a-except.o)
 .ARM.extab.text.ada__exceptions__complete_occurrence
                0x08009160        0x0 C:\gnat\2017\arm-eabi\lib\gnat\ravenscar-full-stm32f4\adalib\\libgnat.a(a-except.o)
 .ARM.extab.text.ada__exceptions__complete_and_propagate_occurrence
                0x08009160        0x0 C:\gnat\2017\arm-eabi\lib\gnat\ravenscar-full-stm32f4\adalib\\libgnat.a(a-except.o)
 .ARM.extab.text.ada__exceptions__raise_exception
                0x08009160        0xc C:\gnat\2017\arm-eabi\lib\gnat\ravenscar-full-stm32f4\adalib\\libgnat.a(a-except.o)
 .ARM.extab.text.__gnat_raise_exception
                0x0800916c        0x0 C:\gnat\2017\arm-eabi\lib\gnat\ravenscar-full-stm32f4\adalib\\libgnat.a(a-except.o)
 .ARM.extab.text.ada__exceptions__raise_exception_no_defer
                0x0800916c        0x0 C:\gnat\2017\arm-eabi\lib\gnat\ravenscar-full-stm32f4\adalib\\libgnat.a(a-except.o)
 .ARM.extab.text.ada__exceptions__raise_from_controlled_operation___finalizer.6963
                0x0800916c        0xc C:\gnat\2017\arm-eabi\lib\gnat\ravenscar-full-stm32f4\adalib\\libgnat.a(a-except.o)
 .ARM.extab.text.__gnat_raise_from_controlled_operation
                0x08009178       0x2f C:\gnat\2017\arm-eabi\lib\gnat\ravenscar-full-stm32f4\adalib\\libgnat.a(a-except.o)
 *fill*         0x080091a7        0x1 
 .ARM.extab.text.ada__exceptions__raise_from_controlled_operation__B_3___finalizer.6998
                0x080091a8        0xc C:\gnat\2017\arm-eabi\lib\gnat\ravenscar-full-stm32f4\adalib\\libgnat.a(a-except.o)
 .ARM.extab.text.ada__exceptions__create_occurrence_from_signal_handler
                0x080091b4        0x0 C:\gnat\2017\arm-eabi\lib\gnat\ravenscar-full-stm32f4\adalib\\libgnat.a(a-except.o)
 .ARM.extab.text.__gnat_create_machine_occurrence_from_signal_handler
                0x080091b4        0xc C:\gnat\2017\arm-eabi\lib\gnat\ravenscar-full-stm32f4\adalib\\libgnat.a(a-except.o)
 .ARM.extab.text.ada__exceptions__raise_from_signal_handler
                0x080091c0        0xc C:\gnat\2017\arm-eabi\lib\gnat\ravenscar-full-stm32f4\adalib\\libgnat.a(a-except.o)
 .ARM.extab.text.__gnat_raise_program_error
                0x080091cc        0x0 C:\gnat\2017\arm-eabi\lib\gnat\ravenscar-full-stm32f4\adalib\\libgnat.a(a-except.o)
 .ARM.extab.text.__gnat_raise_program_error_msg
                0x080091cc        0x0 C:\gnat\2017\arm-eabi\lib\gnat\ravenscar-full-stm32f4\adalib\\libgnat.a(a-except.o)
 .ARM.extab.text.__gnat_raise_storage_error
                0x080091cc        0x0 C:\gnat\2017\arm-eabi\lib\gnat\ravenscar-full-stm32f4\adalib\\libgnat.a(a-except.o)
 .ARM.extab.text.__gnat_raise_storage_error_msg
                0x080091cc        0x0 C:\gnat\2017\arm-eabi\lib\gnat\ravenscar-full-stm32f4\adalib\\libgnat.a(a-except.o)
 .ARM.extab.text.ada__exceptions__raise_with_location_and_msg
                0x080091cc        0x0 C:\gnat\2017\arm-eabi\lib\gnat\ravenscar-full-stm32f4\adalib\\libgnat.a(a-except.o)
 .ARM.extab.text.__gnat_raise_with_msg
                0x080091cc        0x0 C:\gnat\2017\arm-eabi\lib\gnat\ravenscar-full-stm32f4\adalib\\libgnat.a(a-except.o)
 .ARM.extab.text.__gnat_rcheck_CE_Access_Check
                0x080091cc        0xc C:\gnat\2017\arm-eabi\lib\gnat\ravenscar-full-stm32f4\adalib\\libgnat.a(a-except.o)
 .ARM.extab.text.__gnat_rcheck_CE_Null_Access_Parameter
                0x080091d8        0xc C:\gnat\2017\arm-eabi\lib\gnat\ravenscar-full-stm32f4\adalib\\libgnat.a(a-except.o)
 .ARM.extab.text.__gnat_rcheck_CE_Discriminant_Check
                0x080091e4        0xc C:\gnat\2017\arm-eabi\lib\gnat\ravenscar-full-stm32f4\adalib\\libgnat.a(a-except.o)
 .ARM.extab.text.__gnat_rcheck_CE_Divide_By_Zero
                0x080091f0        0xc C:\gnat\2017\arm-eabi\lib\gnat\ravenscar-full-stm32f4\adalib\\libgnat.a(a-except.o)
 .ARM.extab.text.__gnat_rcheck_CE_Explicit_Raise
                0x080091fc        0xc C:\gnat\2017\arm-eabi\lib\gnat\ravenscar-full-stm32f4\adalib\\libgnat.a(a-except.o)
 .ARM.extab.text.__gnat_rcheck_CE_Index_Check
                0x08009208        0xc C:\gnat\2017\arm-eabi\lib\gnat\ravenscar-full-stm32f4\adalib\\libgnat.a(a-except.o)
 .ARM.extab.text.__gnat_rcheck_CE_Invalid_Data
                0x08009214        0xc C:\gnat\2017\arm-eabi\lib\gnat\ravenscar-full-stm32f4\adalib\\libgnat.a(a-except.o)
 .ARM.extab.text.__gnat_rcheck_CE_Length_Check
                0x08009220        0xc C:\gnat\2017\arm-eabi\lib\gnat\ravenscar-full-stm32f4\adalib\\libgnat.a(a-except.o)
 .ARM.extab.text.__gnat_rcheck_CE_Null_Exception_Id
                0x0800922c        0xc C:\gnat\2017\arm-eabi\lib\gnat\ravenscar-full-stm32f4\adalib\\libgnat.a(a-except.o)
 .ARM.extab.text.__gnat_rcheck_CE_Null_Not_Allowed
                0x08009238        0xc C:\gnat\2017\arm-eabi\lib\gnat\ravenscar-full-stm32f4\adalib\\libgnat.a(a-except.o)
 .ARM.extab.text.__gnat_rcheck_CE_Overflow_Check
                0x08009244        0xc C:\gnat\2017\arm-eabi\lib\gnat\ravenscar-full-stm32f4\adalib\\libgnat.a(a-except.o)
 .ARM.extab.text.__gnat_rcheck_CE_Partition_Check
                0x08009250        0xc C:\gnat\2017\arm-eabi\lib\gnat\ravenscar-full-stm32f4\adalib\\libgnat.a(a-except.o)
 .ARM.extab.text.__gnat_rcheck_CE_Range_Check
                0x0800925c        0xc C:\gnat\2017\arm-eabi\lib\gnat\ravenscar-full-stm32f4\adalib\\libgnat.a(a-except.o)
 .ARM.extab.text.__gnat_rcheck_CE_Tag_Check
                0x08009268        0xc C:\gnat\2017\arm-eabi\lib\gnat\ravenscar-full-stm32f4\adalib\\libgnat.a(a-except.o)
 .ARM.extab.text.__gnat_rcheck_PE_Access_Before_Elaboration
                0x08009274        0xc C:\gnat\2017\arm-eabi\lib\gnat\ravenscar-full-stm32f4\adalib\\libgnat.a(a-except.o)
 .ARM.extab.text.__gnat_rcheck_PE_Accessibility_Check
                0x08009280        0xc C:\gnat\2017\arm-eabi\lib\gnat\ravenscar-full-stm32f4\adalib\\libgnat.a(a-except.o)
 .ARM.extab.text.__gnat_rcheck_PE_Address_Of_Intrinsic
                0x0800928c        0xc C:\gnat\2017\arm-eabi\lib\gnat\ravenscar-full-stm32f4\adalib\\libgnat.a(a-except.o)
 .ARM.extab.text.__gnat_rcheck_PE_Aliased_Parameters
                0x08009298        0xc C:\gnat\2017\arm-eabi\lib\gnat\ravenscar-full-stm32f4\adalib\\libgnat.a(a-except.o)
 .ARM.extab.text.__gnat_rcheck_PE_All_Guards_Closed
                0x080092a4        0xc C:\gnat\2017\arm-eabi\lib\gnat\ravenscar-full-stm32f4\adalib\\libgnat.a(a-except.o)
 .ARM.extab.text.__gnat_rcheck_PE_Bad_Predicated_Generic_Type
                0x080092b0        0xc C:\gnat\2017\arm-eabi\lib\gnat\ravenscar-full-stm32f4\adalib\\libgnat.a(a-except.o)
 .ARM.extab.text.__gnat_rcheck_PE_Current_Task_In_Entry_Body
                0x080092bc        0xc C:\gnat\2017\arm-eabi\lib\gnat\ravenscar-full-stm32f4\adalib\\libgnat.a(a-except.o)
 .ARM.extab.text.__gnat_rcheck_PE_Duplicated_Entry_Address
                0x080092c8        0xc C:\gnat\2017\arm-eabi\lib\gnat\ravenscar-full-stm32f4\adalib\\libgnat.a(a-except.o)
 .ARM.extab.text.__gnat_rcheck_PE_Explicit_Raise
                0x080092d4        0xc C:\gnat\2017\arm-eabi\lib\gnat\ravenscar-full-stm32f4\adalib\\libgnat.a(a-except.o)
 .ARM.extab.text.__gnat_rcheck_PE_Implicit_Return
                0x080092e0        0xc C:\gnat\2017\arm-eabi\lib\gnat\ravenscar-full-stm32f4\adalib\\libgnat.a(a-except.o)
 .ARM.extab.text.__gnat_rcheck_PE_Misaligned_Address_Value
                0x080092ec        0xc C:\gnat\2017\arm-eabi\lib\gnat\ravenscar-full-stm32f4\adalib\\libgnat.a(a-except.o)
 .ARM.extab.text.__gnat_rcheck_PE_Missing_Return
                0x080092f8        0xc C:\gnat\2017\arm-eabi\lib\gnat\ravenscar-full-stm32f4\adalib\\libgnat.a(a-except.o)
 .ARM.extab.text.__gnat_rcheck_PE_Non_Transportable_Actual
                0x08009304        0xc C:\gnat\2017\arm-eabi\lib\gnat\ravenscar-full-stm32f4\adalib\\libgnat.a(a-except.o)
 .ARM.extab.text.__gnat_rcheck_PE_Overlaid_Controlled_Object
                0x08009310        0xc C:\gnat\2017\arm-eabi\lib\gnat\ravenscar-full-stm32f4\adalib\\libgnat.a(a-except.o)
 .ARM.extab.text.__gnat_rcheck_PE_Potentially_Blocking_Operation
                0x0800931c        0xc C:\gnat\2017\arm-eabi\lib\gnat\ravenscar-full-stm32f4\adalib\\libgnat.a(a-except.o)
 .ARM.extab.text.__gnat_rcheck_PE_Stream_Operation_Not_Allowed
                0x08009328        0xc C:\gnat\2017\arm-eabi\lib\gnat\ravenscar-full-stm32f4\adalib\\libgnat.a(a-except.o)
 .ARM.extab.text.__gnat_rcheck_PE_Stubbed_Subprogram_Called
                0x08009334        0xc C:\gnat\2017\arm-eabi\lib\gnat\ravenscar-full-stm32f4\adalib\\libgnat.a(a-except.o)
 .ARM.extab.text.__gnat_rcheck_PE_Unchecked_Union_Restriction
                0x08009340        0xc C:\gnat\2017\arm-eabi\lib\gnat\ravenscar-full-stm32f4\adalib\\libgnat.a(a-except.o)
 .ARM.extab.text.__gnat_rcheck_SE_Empty_Storage_Pool
                0x0800934c        0xc C:\gnat\2017\arm-eabi\lib\gnat\ravenscar-full-stm32f4\adalib\\libgnat.a(a-except.o)
 .ARM.extab.text.__gnat_rcheck_SE_Explicit_Raise
                0x08009358        0xc C:\gnat\2017\arm-eabi\lib\gnat\ravenscar-full-stm32f4\adalib\\libgnat.a(a-except.o)
 .ARM.extab.text.__gnat_rcheck_SE_Infinite_Recursion
                0x08009364        0xc C:\gnat\2017\arm-eabi\lib\gnat\ravenscar-full-stm32f4\adalib\\libgnat.a(a-except.o)
 .ARM.extab.text.__gnat_rcheck_SE_Object_Too_Large
                0x08009370        0xc C:\gnat\2017\arm-eabi\lib\gnat\ravenscar-full-stm32f4\adalib\\libgnat.a(a-except.o)
 .ARM.extab.text.__gnat_rcheck_CE_Access_Check_ext
                0x0800937c        0xc C:\gnat\2017\arm-eabi\lib\gnat\ravenscar-full-stm32f4\adalib\\libgnat.a(a-except.o)
 .ARM.extab.text.ada__exceptions__rcheck_ce_index_check_ext___finalizer.7070
                0x08009388        0xc C:\gnat\2017\arm-eabi\lib\gnat\ravenscar-full-stm32f4\adalib\\libgnat.a(a-except.o)
 .ARM.extab.text.__gnat_rcheck_CE_Index_Check_ext
                0x08009394       0x1b C:\gnat\2017\arm-eabi\lib\gnat\ravenscar-full-stm32f4\adalib\\libgnat.a(a-except.o)
 *fill*         0x080093af        0x1 
 .ARM.extab.text.ada__exceptions__rcheck_ce_invalid_data_ext___finalizer.7145
                0x080093b0        0xc C:\gnat\2017\arm-eabi\lib\gnat\ravenscar-full-stm32f4\adalib\\libgnat.a(a-except.o)
 .ARM.extab.text.__gnat_rcheck_CE_Invalid_Data_ext
                0x080093bc       0x1b C:\gnat\2017\arm-eabi\lib\gnat\ravenscar-full-stm32f4\adalib\\libgnat.a(a-except.o)
 *fill*         0x080093d7        0x1 
 .ARM.extab.text.ada__exceptions__rcheck_ce_range_check_ext___finalizer.7220
                0x080093d8        0xc C:\gnat\2017\arm-eabi\lib\gnat\ravenscar-full-stm32f4\adalib\\libgnat.a(a-except.o)
 .ARM.extab.text.__gnat_rcheck_CE_Range_Check_ext
                0x080093e4       0x1b C:\gnat\2017\arm-eabi\lib\gnat\ravenscar-full-stm32f4\adalib\\libgnat.a(a-except.o)
 .ARM.extab.text.__gnat_rcheck_PE_Finalize_Raised_Exception
                0x080093ff        0x0 C:\gnat\2017\arm-eabi\lib\gnat\ravenscar-full-stm32f4\adalib\\libgnat.a(a-except.o)
 .ARM.extab.text.__gnat_reraise
                0x080093ff        0x0 C:\gnat\2017\arm-eabi\lib\gnat\ravenscar-full-stm32f4\adalib\\libgnat.a(a-except.o)
 *fill*         0x080093ff        0x1 
 .ARM.extab.text.__gnat_reraise_library_exception_if_any
                0x08009400        0xc C:\gnat\2017\arm-eabi\lib\gnat\ravenscar-full-stm32f4\adalib\\libgnat.a(a-except.o)
 .ARM.extab.text.ada__exceptions__reraise_occurrence
                0x0800940c        0xc C:\gnat\2017\arm-eabi\lib\gnat\ravenscar-full-stm32f4\adalib\\libgnat.a(a-except.o)
 .ARM.extab.text.ada__exceptions__reraise_occurrence_always
                0x08009418        0xc C:\gnat\2017\arm-eabi\lib\gnat\ravenscar-full-stm32f4\adalib\\libgnat.a(a-except.o)
 .ARM.extab.text.ada__exceptions__reraise_occurrence_no_defer
                0x08009424        0x0 C:\gnat\2017\arm-eabi\lib\gnat\ravenscar-full-stm32f4\adalib\\libgnat.a(a-except.o)
 .ARM.extab.text.ada__exceptions__save_occurrence
                0x08009424        0x0 C:\gnat\2017\arm-eabi\lib\gnat\ravenscar-full-stm32f4\adalib\\libgnat.a(a-except.o)
 .ARM.extab.text.ada__exceptions__save_occurrence__2
                0x08009424        0x0 C:\gnat\2017\arm-eabi\lib\gnat\ravenscar-full-stm32f4\adalib\\libgnat.a(a-except.o)
 .ARM.extab.text.ada__exceptions__string_to_eid
                0x08009424        0xc C:\gnat\2017\arm-eabi\lib\gnat\ravenscar-full-stm32f4\adalib\\libgnat.a(a-except.o)
 .ARM.extab.text.ada__exceptions__string_to_eo
                0x08009430        0x0 C:\gnat\2017\arm-eabi\lib\gnat\ravenscar-full-stm32f4\adalib\\libgnat.a(a-except.o)
 .ARM.extab.text.__gnat_to_stderr_char
                0x08009430        0xc C:\gnat\2017\arm-eabi\lib\gnat\ravenscar-full-stm32f4\adalib\\libgnat.a(a-except.o)
 .ARM.extab.text.__gnat_to_stderr
                0x0800943c        0x0 C:\gnat\2017\arm-eabi\lib\gnat\ravenscar-full-stm32f4\adalib\\libgnat.a(a-except.o)
 .ARM.extab.text.__gnat_transfer_occurrence
                0x0800943c        0x0 C:\gnat\2017\arm-eabi\lib\gnat\ravenscar-full-stm32f4\adalib\\libgnat.a(a-except.o)
 .ARM.extab.text.ada__exceptions__triggered_by_abort
                0x0800943c        0xc C:\gnat\2017\arm-eabi\lib\gnat\ravenscar-full-stm32f4\adalib\\libgnat.a(a-except.o)
 .ARM.extab.text.ada__exceptions__wide_exception_name
                0x08009448        0x0 C:\gnat\2017\arm-eabi\lib\gnat\ravenscar-full-stm32f4\adalib\\libgnat.a(a-except.o)
 .ARM.extab.text.ada__exceptions__wide_exception_name__2
                0x08009448        0x0 C:\gnat\2017\arm-eabi\lib\gnat\ravenscar-full-stm32f4\adalib\\libgnat.a(a-except.o)
 .ARM.extab.text.ada__exceptions__wide_wide_exception_name
                0x08009448        0x0 C:\gnat\2017\arm-eabi\lib\gnat\ravenscar-full-stm32f4\adalib\\libgnat.a(a-except.o)
 .ARM.extab.text.ada__exceptions__wide_wide_exception_name__2
                0x08009448        0x0 C:\gnat\2017\arm-eabi\lib\gnat\ravenscar-full-stm32f4\adalib\\libgnat.a(a-except.o)
 .ARM.extab.text.ada__exceptions__code_address_for_zzz
                0x08009448        0x0 C:\gnat\2017\arm-eabi\lib\gnat\ravenscar-full-stm32f4\adalib\\libgnat.a(a-except.o)
 .ARM.extab.text.__gnat_last_chance_handler
                0x08009448       0x26 C:\gnat\2017\arm-eabi\lib\gnat\ravenscar-full-stm32f4\adalib\\libgnat.a(a-elchha.o)
 .ARM.extab.text.memset
                0x0800946e        0x0 C:\gnat\2017\arm-eabi\lib\gnat\ravenscar-full-stm32f4\adalib\\libgnat.a(s-memset.o)
 .ARM.extab.text.memmove
                0x0800946e        0x0 C:\gnat\2017\arm-eabi\lib\gnat\ravenscar-full-stm32f4\adalib\\libgnat.a(s-memmov.o)
 .ARM.extab.text.memcpy
                0x0800946e        0x0 C:\gnat\2017\arm-eabi\lib\gnat\ravenscar-full-stm32f4\adalib\\libgnat.a(s-memcop.o)
 .ARM.extab.text.memcmp
                0x0800946e        0x0 C:\gnat\2017\arm-eabi\lib\gnat\ravenscar-full-stm32f4\adalib\\libgnat.a(s-memcom.o)
 .ARM.extab.text.system__secondary_stack__memoryIP
                0x0800946e        0x0 C:\gnat\2017\arm-eabi\lib\gnat\ravenscar-full-stm32f4\adalib\\libgnat.a(s-secsta.o)
 .ARM.extab.text.system__secondary_stack__ss_allocate
                0x0800946e        0x0 C:\gnat\2017\arm-eabi\lib\gnat\ravenscar-full-stm32f4\adalib\\libgnat.a(s-secsta.o)
 .ARM.extab.text.system__secondary_stack__ss_init
                0x0800946e        0x0 C:\gnat\2017\arm-eabi\lib\gnat\ravenscar-full-stm32f4\adalib\\libgnat.a(s-secsta.o)
 *fill*         0x0800946e        0x2 
 .ARM.extab.text.system__secondary_stack__ss_mark
                0x08009470        0xc C:\gnat\2017\arm-eabi\lib\gnat\ravenscar-full-stm32f4\adalib\\libgnat.a(s-secsta.o)
 .ARM.extab.text.system__secondary_stack__ss_release
                0x0800947c        0x0 C:\gnat\2017\arm-eabi\lib\gnat\ravenscar-full-stm32f4\adalib\\libgnat.a(s-secsta.o)
 .ARM.extab.text.system__img_int__set_digits
                0x0800947c        0x0 C:\gnat\2017\arm-eabi\lib\gnat\ravenscar-full-stm32f4\adalib\\libgnat.a(s-imgint.o)
 .ARM.extab.text.system__img_int__set_image_integer
                0x0800947c        0x0 C:\gnat\2017\arm-eabi\lib\gnat\ravenscar-full-stm32f4\adalib\\libgnat.a(s-imgint.o)
 .ARM.extab.text.system__img_int__image_integer
                0x0800947c        0x0 C:\gnat\2017\arm-eabi\lib\gnat\ravenscar-full-stm32f4\adalib\\libgnat.a(s-imgint.o)
 .ARM.extab.text.read_encoded_value_with_base
                0x0800947c        0x0 C:\gnat\2017\arm-eabi\lib\gnat\ravenscar-full-stm32f4\adalib\\libgnat.a(raise-gcc.o)
 .ARM.extab.text.base_of_encoded_value
                0x0800947c        0x0 C:\gnat\2017\arm-eabi\lib\gnat\ravenscar-full-stm32f4\adalib\\libgnat.a(raise-gcc.o)
 .ARM.extab.text.__gnat_personality_v0
                0x0800947c        0x0 C:\gnat\2017\arm-eabi\lib\gnat\ravenscar-full-stm32f4\adalib\\libgnat.a(raise-gcc.o)
 .ARM.extab.text.__gnat_cleanupunwind_handler
                0x0800947c        0xc C:\gnat\2017\arm-eabi\lib\gnat\ravenscar-full-stm32f4\adalib\\libgnat.a(raise-gcc.o)
 .ARM.extab.text.__gnat_Unwind_RaiseException
                0x08009488        0x0 C:\gnat\2017\arm-eabi\lib\gnat\ravenscar-full-stm32f4\adalib\\libgnat.a(raise-gcc.o)
 .ARM.extab.text.__gnat_Unwind_ForcedUnwind
                0x08009488        0x0 C:\gnat\2017\arm-eabi\lib\gnat\ravenscar-full-stm32f4\adalib\\libgnat.a(raise-gcc.o)
 .ARM.extab.text.system__bb__interrupts__Tinterrupt_stacksBIP
                0x08009488        0x0 C:\gnat\2017\arm-eabi\lib\gnat\ravenscar-full-stm32f4\adalib\\libgnat.a(s-bbinte.o)
 .ARM.extab.text.system__bb__interrupts__Tinterrupt_stack_tableBIP
                0x08009488        0x0 C:\gnat\2017\arm-eabi\lib\gnat\ravenscar-full-stm32f4\adalib\\libgnat.a(s-bbinte.o)
 .ARM.extab.text.system__bb__interrupts__attach_handler
                0x08009488        0x0 C:\gnat\2017\arm-eabi\lib\gnat\ravenscar-full-stm32f4\adalib\\libgnat.a(s-bbinte.o)
 .ARM.extab.text.system__bb__interrupts__current_interrupt
                0x08009488        0x0 C:\gnat\2017\arm-eabi\lib\gnat\ravenscar-full-stm32f4\adalib\\libgnat.a(s-bbinte.o)
 .ARM.extab.text.system__bb__interrupts__interrupt_wrapper
                0x08009488        0x0 C:\gnat\2017\arm-eabi\lib\gnat\ravenscar-full-stm32f4\adalib\\libgnat.a(s-bbinte.o)
 .ARM.extab.text.system__bb__interrupts__within_interrupt_stack
                0x08009488        0x0 C:\gnat\2017\arm-eabi\lib\gnat\ravenscar-full-stm32f4\adalib\\libgnat.a(s-bbinte.o)
 .ARM.extab.text.system__bb__interrupts__initialize_interrupts
                0x08009488        0x0 C:\gnat\2017\arm-eabi\lib\gnat\ravenscar-full-stm32f4\adalib\\libgnat.a(s-bbinte.o)
 .ARM.extab.text.system__bb__cpu_primitives__gnat_error_handler
                0x08009488        0xc C:\gnat\2017\arm-eabi\lib\gnat\ravenscar-full-stm32f4\adalib\\libgnat.a(s-bbcppr.o)
 .ARM.extab.text.system__bb__cpu_primitives__Tcontext_bufferBIP
                0x08009494        0x0 C:\gnat\2017\arm-eabi\lib\gnat\ravenscar-full-stm32f4\adalib\\libgnat.a(s-bbcppr.o)
 .ARM.extab.text.system__bb__cpu_primitives__hardware_contextIP
                0x08009494        0x0 C:\gnat\2017\arm-eabi\lib\gnat\ravenscar-full-stm32f4\adalib\\libgnat.a(s-bbcppr.o)
 .ARM.extab.text.primask
                0x08009494        0x0 C:\gnat\2017\arm-eabi\lib\gnat\ravenscar-full-stm32f4\adalib\\libgnat.a(s-bbcppr.o)
 .ARM.extab.text.system__bb__cpu_primitives__initialize_cpu
                0x08009494        0x0 C:\gnat\2017\arm-eabi\lib\gnat\ravenscar-full-stm32f4\adalib\\libgnat.a(s-bbcppr.o)
 .ARM.extab.text.system__bb__cpu_primitives__context_switch
                0x08009494        0x0 C:\gnat\2017\arm-eabi\lib\gnat\ravenscar-full-stm32f4\adalib\\libgnat.a(s-bbcppr.o)
 .ARM.extab.text.system__bb__cpu_primitives__get_context
                0x08009494        0x0 C:\gnat\2017\arm-eabi\lib\gnat\ravenscar-full-stm32f4\adalib\\libgnat.a(s-bbcppr.o)
 .ARM.extab.text.__gnat_irq_trap
                0x08009494        0xc C:\gnat\2017\arm-eabi\lib\gnat\ravenscar-full-stm32f4\adalib\\libgnat.a(s-bbcppr.o)
 .ARM.extab.text.__gnat_pend_sv_trap
                0x080094a0        0x0 C:\gnat\2017\arm-eabi\lib\gnat\ravenscar-full-stm32f4\adalib\\libgnat.a(s-bbcppr.o)
 .ARM.extab.text.__gnat_sv_call_trap
                0x080094a0        0xc C:\gnat\2017\arm-eabi\lib\gnat\ravenscar-full-stm32f4\adalib\\libgnat.a(s-bbcppr.o)
 .ARM.extab.text.system__bb__cpu_primitives__set_context
                0x080094ac        0x0 C:\gnat\2017\arm-eabi\lib\gnat\ravenscar-full-stm32f4\adalib\\libgnat.a(s-bbcppr.o)
 .ARM.extab.text.__gnat_sys_tick_trap
                0x080094ac        0xc C:\gnat\2017\arm-eabi\lib\gnat\ravenscar-full-stm32f4\adalib\\libgnat.a(s-bbcppr.o)
 .ARM.extab.text.system__bb__cpu_primitives__initialize_context
                0x080094b8        0x0 C:\gnat\2017\arm-eabi\lib\gnat\ravenscar-full-stm32f4\adalib\\libgnat.a(s-bbcppr.o)
 .ARM.extab.text.system__bb__cpu_primitives__install_error_handlers
                0x080094b8        0x0 C:\gnat\2017\arm-eabi\lib\gnat\ravenscar-full-stm32f4\adalib\\libgnat.a(s-bbcppr.o)
 .ARM.extab.text.system__bb__cpu_primitives__install_trap_handler
                0x080094b8        0x0 C:\gnat\2017\arm-eabi\lib\gnat\ravenscar-full-stm32f4\adalib\\libgnat.a(s-bbcppr.o)
 .ARM.extab.text.system__bb__cpu_primitives__disable_interrupts
                0x080094b8        0x0 C:\gnat\2017\arm-eabi\lib\gnat\ravenscar-full-stm32f4\adalib\\libgnat.a(s-bbcppr.o)
 .ARM.extab.text.system__bb__cpu_primitives__enable_interrupts
                0x080094b8        0x0 C:\gnat\2017\arm-eabi\lib\gnat\ravenscar-full-stm32f4\adalib\\libgnat.a(s-bbcppr.o)
 .ARM.extab.text.system__bb__board_support__timer_interrupt_handler
                0x080094b8        0x0 C:\gnat\2017\arm-eabi\lib\gnat\ravenscar-full-stm32f4\adalib\\libgnat.a(s-bbbosu.o)
 .ARM.extab.text.system__bb__board_support__interrupt_handler
                0x080094b8        0x0 C:\gnat\2017\arm-eabi\lib\gnat\ravenscar-full-stm32f4\adalib\\libgnat.a(s-bbbosu.o)
 .ARM.extab.text.system__bb__board_support__enable_interrupt_request.part.0
                0x080094b8        0x0 C:\gnat\2017\arm-eabi\lib\gnat\ravenscar-full-stm32f4\adalib\\libgnat.a(s-bbbosu.o)
 .ARM.extab.text.system__bb__board_support__time__max_timer_interval
                0x080094b8        0x0 C:\gnat\2017\arm-eabi\lib\gnat\ravenscar-full-stm32f4\adalib\\libgnat.a(s-bbbosu.o)
 .ARM.extab.text.system__bb__board_support__time__read_clock
                0x080094b8        0x0 C:\gnat\2017\arm-eabi\lib\gnat\ravenscar-full-stm32f4\adalib\\libgnat.a(s-bbbosu.o)
 .ARM.extab.text.system__bb__board_support__time__clear_alarm_interrupt
                0x080094b8        0x0 C:\gnat\2017\arm-eabi\lib\gnat\ravenscar-full-stm32f4\adalib\\libgnat.a(s-bbbosu.o)
 .ARM.extab.text.system__bb__board_support__time__set_alarm
                0x080094b8        0x0 C:\gnat\2017\arm-eabi\lib\gnat\ravenscar-full-stm32f4\adalib\\libgnat.a(s-bbbosu.o)
 .ARM.extab.text.system__bb__board_support__time__install_alarm_handler
                0x080094b8        0x0 C:\gnat\2017\arm-eabi\lib\gnat\ravenscar-full-stm32f4\adalib\\libgnat.a(s-bbbosu.o)
 .ARM.extab.text.system__bb__board_support__multiprocessors__number_of_cpus
                0x080094b8        0x0 C:\gnat\2017\arm-eabi\lib\gnat\ravenscar-full-stm32f4\adalib\\libgnat.a(s-bbbosu.o)
 .ARM.extab.text.system__bb__board_support__multiprocessors__current_cpu
                0x080094b8        0x0 C:\gnat\2017\arm-eabi\lib\gnat\ravenscar-full-stm32f4\adalib\\libgnat.a(s-bbbosu.o)
 .ARM.extab.text.system__bb__board_support__multiprocessors__poke_cpu
                0x080094b8        0x0 C:\gnat\2017\arm-eabi\lib\gnat\ravenscar-full-stm32f4\adalib\\libgnat.a(s-bbbosu.o)
 .ARM.extab.text.system__bb__board_support__multiprocessors__start_all_cpus
                0x080094b8        0x0 C:\gnat\2017\arm-eabi\lib\gnat\ravenscar-full-stm32f4\adalib\\libgnat.a(s-bbbosu.o)
 .ARM.extab.text.system__bb__board_support__interrupts__install_interrupt_handler
                0x080094b8        0x0 C:\gnat\2017\arm-eabi\lib\gnat\ravenscar-full-stm32f4\adalib\\libgnat.a(s-bbbosu.o)
 .ARM.extab.text.system__bb__board_support__interrupts__priority_of_interrupt
                0x080094b8        0x0 C:\gnat\2017\arm-eabi\lib\gnat\ravenscar-full-stm32f4\adalib\\libgnat.a(s-bbbosu.o)
 .ARM.extab.text.system__bb__board_support__interrupts__power_down
                0x080094b8        0x0 C:\gnat\2017\arm-eabi\lib\gnat\ravenscar-full-stm32f4\adalib\\libgnat.a(s-bbbosu.o)
 .ARM.extab.text.system__bb__board_support__interrupts__set_current_priority
                0x080094b8        0x0 C:\gnat\2017\arm-eabi\lib\gnat\ravenscar-full-stm32f4\adalib\\libgnat.a(s-bbbosu.o)
 .ARM.extab.text.system__bb__board_support__sys_tick_registersIP
                0x080094b8        0x0 C:\gnat\2017\arm-eabi\lib\gnat\ravenscar-full-stm32f4\adalib\\libgnat.a(s-bbbosu.o)
 .ARM.extab.text.system__bb__board_support__TipBIP
                0x080094b8        0x0 C:\gnat\2017\arm-eabi\lib\gnat\ravenscar-full-stm32f4\adalib\\libgnat.a(s-bbbosu.o)
 .ARM.extab.text.system__bb__board_support__initialize_board
                0x080094b8        0x0 C:\gnat\2017\arm-eabi\lib\gnat\ravenscar-full-stm32f4\adalib\\libgnat.a(s-bbbosu.o)
 .ARM.extab.text.system__bb__board_support__enable_interrupt_request
                0x080094b8        0x0 C:\gnat\2017\arm-eabi\lib\gnat\ravenscar-full-stm32f4\adalib\\libgnat.a(s-bbbosu.o)
 .ARM.extab.text.system__bb__board_support__to_pri
                0x080094b8        0x0 C:\gnat\2017\arm-eabi\lib\gnat\ravenscar-full-stm32f4\adalib\\libgnat.a(s-bbbosu.o)
 .ARM.extab.text.system__bb__board_support__to_priority
                0x080094b8        0x0 C:\gnat\2017\arm-eabi\lib\gnat\ravenscar-full-stm32f4\adalib\\libgnat.a(s-bbbosu.o)
 .ARM.extab.text.system__bb__mcu_parameters__is_pwr_stabilized
                0x080094b8        0x0 C:\gnat\2017\arm-eabi\lib\gnat\ravenscar-full-stm32f4\adalib\\libgnat.a(s-bbmcpa.o)
 .ARM.extab.text.system__bb__mcu_parameters__pwr_initialize
                0x080094b8        0x0 C:\gnat\2017\arm-eabi\lib\gnat\ravenscar-full-stm32f4\adalib\\libgnat.a(s-bbmcpa.o)
 .ARM.extab.text.system__bb__mcu_parameters__pwr_overdrive_enable
                0x080094b8        0x0 C:\gnat\2017\arm-eabi\lib\gnat\ravenscar-full-stm32f4\adalib\\libgnat.a(s-bbmcpa.o)
 .ARM.extab.text.system__bb__time__composite_execution_timeIP
                0x080094b8        0x0 C:\gnat\2017\arm-eabi\lib\gnat\ravenscar-full-stm32f4\adalib\\libgnat.a(s-bbtime.o)
 .ARM.extab.text.system__bb__time__composite_timeIP
                0x080094b8        0x0 C:\gnat\2017\arm-eabi\lib\gnat\ravenscar-full-stm32f4\adalib\\libgnat.a(s-bbtime.o)
 .ARM.extab.text.system__bb__time__clock
                0x080094b8        0x0 C:\gnat\2017\arm-eabi\lib\gnat\ravenscar-full-stm32f4\adalib\\libgnat.a(s-bbtime.o)
 .ARM.extab.text.system__bb__time__epoch
                0x080094b8        0x0 C:\gnat\2017\arm-eabi\lib\gnat\ravenscar-full-stm32f4\adalib\\libgnat.a(s-bbtime.o)
 .ARM.extab.text.system__bb__time__get_next_timeout
                0x080094b8        0x0 C:\gnat\2017\arm-eabi\lib\gnat\ravenscar-full-stm32f4\adalib\\libgnat.a(s-bbtime.o)
 .ARM.extab.text.system__bb__time__initialize_timers
                0x080094b8        0x0 C:\gnat\2017\arm-eabi\lib\gnat\ravenscar-full-stm32f4\adalib\\libgnat.a(s-bbtime.o)
 .ARM.extab.text.system__bb__time__update_alarm
                0x080094b8        0x0 C:\gnat\2017\arm-eabi\lib\gnat\ravenscar-full-stm32f4\adalib\\libgnat.a(s-bbtime.o)
 .ARM.extab.text.system__bb__time__delay_until
                0x080094b8        0x0 C:\gnat\2017\arm-eabi\lib\gnat\ravenscar-full-stm32f4\adalib\\libgnat.a(s-bbtime.o)
 .ARM.extab.text.system__bb__time__alarm_handler
                0x080094b8        0x0 C:\gnat\2017\arm-eabi\lib\gnat\ravenscar-full-stm32f4\adalib\\libgnat.a(s-bbtime.o)
 .ARM.extab.text.system__bb__time__Oconcat
                0x080094b8        0x0 C:\gnat\2017\arm-eabi\lib\gnat\ravenscar-full-stm32f4\adalib\\libgnat.a(s-bbtime.o)
 .ARM.extab.text.system__traceback__backtrace_callback
                0x080094b8        0x0 C:\gnat\2017\arm-eabi\lib\gnat\ravenscar-full-stm32f4\adalib\\libgnat.a(s-traceb.o)
 .ARM.extab.text.system__traceback__unwind_context_typeIP
                0x080094b8        0x0 C:\gnat\2017\arm-eabi\lib\gnat\ravenscar-full-stm32f4\adalib\\libgnat.a(s-traceb.o)
 .ARM.extab.text.system__traceback__callback_params_typeIP
                0x080094b8        0x0 C:\gnat\2017\arm-eabi\lib\gnat\ravenscar-full-stm32f4\adalib\\libgnat.a(s-traceb.o)
 .ARM.extab.text.system__traceback__call_chain
                0x080094b8        0x0 C:\gnat\2017\arm-eabi\lib\gnat\ravenscar-full-stm32f4\adalib\\libgnat.a(s-traceb.o)
 .ARM.extab.text.system__exceptions__machine__Texception_classBIP
                0x080094b8        0x0 C:\gnat\2017\arm-eabi\lib\gnat\ravenscar-full-stm32f4\adalib\\libgnat.a(s-excmac.o)
 .ARM.extab.text.system__exceptions__machine__uint32_t_arrayIP
                0x080094b8        0x0 C:\gnat\2017\arm-eabi\lib\gnat\ravenscar-full-stm32f4\adalib\\libgnat.a(s-excmac.o)
 .ARM.extab.text.system__exceptions__machine__unwinder_cache_typeIP
                0x080094b8        0x0 C:\gnat\2017\arm-eabi\lib\gnat\ravenscar-full-stm32f4\adalib\\libgnat.a(s-excmac.o)
 .ARM.extab.text.system__exceptions__machine__barrier_cache_typeIP
                0x080094b8        0x0 C:\gnat\2017\arm-eabi\lib\gnat\ravenscar-full-stm32f4\adalib\\libgnat.a(s-excmac.o)
 .ARM.extab.text.system__exceptions__machine__cleanup_cache_typeIP
                0x080094b8        0x0 C:\gnat\2017\arm-eabi\lib\gnat\ravenscar-full-stm32f4\adalib\\libgnat.a(s-excmac.o)
 .ARM.extab.text.system__exceptions__machine__pr_cache_typeIP
                0x080094b8        0x0 C:\gnat\2017\arm-eabi\lib\gnat\ravenscar-full-stm32f4\adalib\\libgnat.a(s-excmac.o)
 .ARM.extab.text.system__exceptions__machine__unwind_control_blockIP
                0x080094b8        0x0 C:\gnat\2017\arm-eabi\lib\gnat\ravenscar-full-stm32f4\adalib\\libgnat.a(s-excmac.o)
 .ARM.extab.text.system__exceptions__machine__gnat_gcc_exceptionIP
                0x080094b8        0x0 C:\gnat\2017\arm-eabi\lib\gnat\ravenscar-full-stm32f4\adalib\\libgnat.a(s-excmac.o)
 .ARM.extab.text.system__exceptions__machine__new_occurrence
                0x080094b8        0xc C:\gnat\2017\arm-eabi\lib\gnat\ravenscar-full-stm32f4\adalib\\libgnat.a(s-excmac.o)
 .ARM.extab.text.system__wch_stw__get_next_code__in_char.5425
                0x080094c4        0xc C:\gnat\2017\arm-eabi\lib\gnat\ravenscar-full-stm32f4\adalib\\libgnat.a(s-wchstw.o)
 .ARM.extab.text.system__wch_stw__get_next_code__get_utf_32__get_hex.5437
                0x080094d0        0xc C:\gnat\2017\arm-eabi\lib\gnat\ravenscar-full-stm32f4\adalib\\libgnat.a(s-wchstw.o)
 .ARM.extab.text.system__wch_stw__get_next_code
                0x080094dc        0x0 C:\gnat\2017\arm-eabi\lib\gnat\ravenscar-full-stm32f4\adalib\\libgnat.a(s-wchstw.o)
 .ARM.extab.text.system__wch_stw__string_to_wide_string
                0x080094dc        0x0 C:\gnat\2017\arm-eabi\lib\gnat\ravenscar-full-stm32f4\adalib\\libgnat.a(s-wchstw.o)
 .ARM.extab.text.system__wch_stw__string_to_wide_wide_string
                0x080094dc        0x0 C:\gnat\2017\arm-eabi\lib\gnat\ravenscar-full-stm32f4\adalib\\libgnat.a(s-wchstw.o)
 .ARM.extab.text.system__wch_jis__euc_to_jis
                0x080094dc        0xc C:\gnat\2017\arm-eabi\lib\gnat\ravenscar-full-stm32f4\adalib\\libgnat.a(s-wchjis.o)
 .ARM.extab.text.system__wch_jis__jis_to_euc
                0x080094e8        0xc C:\gnat\2017\arm-eabi\lib\gnat\ravenscar-full-stm32f4\adalib\\libgnat.a(s-wchjis.o)
 .ARM.extab.text.system__wch_jis__jis_to_shift_jis
                0x080094f4        0x0 C:\gnat\2017\arm-eabi\lib\gnat\ravenscar-full-stm32f4\adalib\\libgnat.a(s-wchjis.o)
 .ARM.extab.text.system__wch_jis__shift_jis_to_jis
                0x080094f4        0xc C:\gnat\2017\arm-eabi\lib\gnat\ravenscar-full-stm32f4\adalib\\libgnat.a(s-wchjis.o)
 .ARM.extab.text.system__wch_con__get_wc_encoding_method
                0x08009500        0xc C:\gnat\2017\arm-eabi\lib\gnat\ravenscar-full-stm32f4\adalib\\libgnat.a(s-wchcon.o)
 .ARM.extab.text.system__wch_con__get_wc_encoding_method__2
                0x0800950c        0x0 C:\gnat\2017\arm-eabi\lib\gnat\ravenscar-full-stm32f4\adalib\\libgnat.a(s-wchcon.o)
 .ARM.extab.text.system__wch_con__is_start_of_encoding
                0x0800950c        0x0 C:\gnat\2017\arm-eabi\lib\gnat\ravenscar-full-stm32f4\adalib\\libgnat.a(s-wchcon.o)
 .ARM.extab.text.system__val_uns__scan_raw_unsigned
                0x0800950c        0x0 C:\gnat\2017\arm-eabi\lib\gnat\ravenscar-full-stm32f4\adalib\\libgnat.a(s-valuns.o)
 .ARM.extab.text.system__val_uns__scan_unsigned
                0x0800950c        0x0 C:\gnat\2017\arm-eabi\lib\gnat\ravenscar-full-stm32f4\adalib\\libgnat.a(s-valuns.o)
 .ARM.extab.text.system__val_uns__value_unsigned
                0x0800950c        0x0 C:\gnat\2017\arm-eabi\lib\gnat\ravenscar-full-stm32f4\adalib\\libgnat.a(s-valuns.o)
 .ARM.extab.text.system__traceback_entries__tracebacks_arrayIP
                0x0800950c        0x0 C:\gnat\2017\arm-eabi\lib\gnat\ravenscar-full-stm32f4\adalib\\libgnat.a(s-traent.o)
 .ARM.extab.text.system__traceback_entries__pc_for
                0x0800950c        0x0 C:\gnat\2017\arm-eabi\lib\gnat\ravenscar-full-stm32f4\adalib\\libgnat.a(s-traent.o)
 .ARM.extab.text.system__traceback_entries__tb_entry_for
                0x0800950c        0x0 C:\gnat\2017\arm-eabi\lib\gnat\ravenscar-full-stm32f4\adalib\\libgnat.a(s-traent.o)
 .ARM.extab.text.__gnat_malloc
                0x0800950c        0x0 C:\gnat\2017\arm-eabi\lib\gnat\ravenscar-full-stm32f4\adalib\\libgnat.a(s-memory.o)
 .ARM.extab.text.__gnat_free
                0x0800950c        0x0 C:\gnat\2017\arm-eabi\lib\gnat\ravenscar-full-stm32f4\adalib\\libgnat.a(s-memory.o)
 .ARM.extab.text.__gnat_realloc
                0x0800950c        0x0 C:\gnat\2017\arm-eabi\lib\gnat\ravenscar-full-stm32f4\adalib\\libgnat.a(s-memory.o)
 .ARM.extab.text.system__io__put__2
                0x0800950c        0x0 C:\gnat\2017\arm-eabi\lib\gnat\ravenscar-full-stm32f4\adalib\\libgnat.a(s-io.o)
 .ARM.extab.text.system__io__new_line
                0x0800950c        0x0 C:\gnat\2017\arm-eabi\lib\gnat\ravenscar-full-stm32f4\adalib\\libgnat.a(s-io.o)
 .ARM.extab.text.system__io__put__3
                0x0800950c        0x0 C:\gnat\2017\arm-eabi\lib\gnat\ravenscar-full-stm32f4\adalib\\libgnat.a(s-io.o)
 .ARM.extab.text.system__io__put
                0x0800950c        0x0 C:\gnat\2017\arm-eabi\lib\gnat\ravenscar-full-stm32f4\adalib\\libgnat.a(s-io.o)
 .ARM.extab.text.put_char_stderr
                0x0800950c        0x0 C:\gnat\2017\arm-eabi\lib\gnat\ravenscar-full-stm32f4\adalib\\libgnat.a(s-io.o)
 .ARM.extab.text.system__io__put_line
                0x0800950c        0xc C:\gnat\2017\arm-eabi\lib\gnat\ravenscar-full-stm32f4\adalib\\libgnat.a(s-io.o)
 .ARM.extab.text.system__io__standard_output
                0x08009518        0x0 C:\gnat\2017\arm-eabi\lib\gnat\ravenscar-full-stm32f4\adalib\\libgnat.a(s-io.o)
 .ARM.extab.text.system__io__standard_error
                0x08009518        0x0 C:\gnat\2017\arm-eabi\lib\gnat\ravenscar-full-stm32f4\adalib\\libgnat.a(s-io.o)
 .ARM.extab.text.system__io__set_output
                0x08009518        0x0 C:\gnat\2017\arm-eabi\lib\gnat\ravenscar-full-stm32f4\adalib\\libgnat.a(s-io.o)
 .ARM.extab.text.__gnat_debug_raise_exception
                0x08009518        0xc C:\gnat\2017\arm-eabi\lib\gnat\ravenscar-full-stm32f4\adalib\\libgnat.a(s-excdeb.o)
 .ARM.extab.text.__gnat_unhandled_exception
                0x08009524        0xc C:\gnat\2017\arm-eabi\lib\gnat\ravenscar-full-stm32f4\adalib\\libgnat.a(s-excdeb.o)
 .ARM.extab.text.__gnat_debug_raise_assert_failure
                0x08009530        0x0 C:\gnat\2017\arm-eabi\lib\gnat\ravenscar-full-stm32f4\adalib\\libgnat.a(s-excdeb.o)
 .ARM.extab.text.local_raise
                0x08009530        0xc C:\gnat\2017\arm-eabi\lib\gnat\ravenscar-full-stm32f4\adalib\\libgnat.a(s-excdeb.o)
 .ARM.extab.text.gnat__debug_utilities__image__2
                0x0800953c        0x0 C:\gnat\2017\arm-eabi\lib\gnat\ravenscar-full-stm32f4\adalib\\libgnat.a(g-debuti.o)
 .ARM.extab.text.gnat__debug_utilities__image
                0x0800953c        0x0 C:\gnat\2017\arm-eabi\lib\gnat\ravenscar-full-stm32f4\adalib\\libgnat.a(g-debuti.o)
 .ARM.extab.text.gnat__debug_utilities__image_c
                0x0800953c        0x0 C:\gnat\2017\arm-eabi\lib\gnat\ravenscar-full-stm32f4\adalib\\libgnat.a(g-debuti.o)
 .ARM.extab.text.gnat__debug_utilities__value
                0x0800953c        0x0 C:\gnat\2017\arm-eabi\lib\gnat\ravenscar-full-stm32f4\adalib\\libgnat.a(g-debuti.o)
 .ARM.extab.text.system__text_io__initialize
                0x0800953c        0x0 C:\gnat\2017\arm-eabi\lib\gnat\ravenscar-full-stm32f4\adalib\\libgnat.a(s-textio.o)
 .ARM.extab.text.system__text_io__is_tx_ready
                0x0800953c        0x0 C:\gnat\2017\arm-eabi\lib\gnat\ravenscar-full-stm32f4\adalib\\libgnat.a(s-textio.o)
 .ARM.extab.text.system__text_io__is_rx_ready
                0x0800953c        0x0 C:\gnat\2017\arm-eabi\lib\gnat\ravenscar-full-stm32f4\adalib\\libgnat.a(s-textio.o)
 .ARM.extab.text.system__text_io__get
                0x0800953c        0x0 C:\gnat\2017\arm-eabi\lib\gnat\ravenscar-full-stm32f4\adalib\\libgnat.a(s-textio.o)
 .ARM.extab.text.system__text_io__put
                0x0800953c        0x0 C:\gnat\2017\arm-eabi\lib\gnat\ravenscar-full-stm32f4\adalib\\libgnat.a(s-textio.o)
 .ARM.extab.text.system__text_io__use_cr_lf_for_new_line
                0x0800953c        0x0 C:\gnat\2017\arm-eabi\lib\gnat\ravenscar-full-stm32f4\adalib\\libgnat.a(s-textio.o)
 .ARM.extab.text.system__semihosting__put
                0x0800953c        0x0 C:\gnat\2017\arm-eabi\lib\gnat\ravenscar-full-stm32f4\adalib\\libgnat.a(s-semiho.o)
 .ARM.extab.text.system__semihosting__put__2
                0x0800953c        0x0 C:\gnat\2017\arm-eabi\lib\gnat\ravenscar-full-stm32f4\adalib\\libgnat.a(s-semiho.o)
 .ARM.extab.text.system__semihosting__get
                0x0800953c        0x0 C:\gnat\2017\arm-eabi\lib\gnat\ravenscar-full-stm32f4\adalib\\libgnat.a(s-semiho.o)
 .ARM.extab.text.system__val_util__bad_value
                0x0800953c        0x0 C:\gnat\2017\arm-eabi\lib\gnat\ravenscar-full-stm32f4\adalib\\libgnat.a(s-valuti.o)
 .ARM.extab.text.system__val_util__normalize_string
                0x0800953c        0x0 C:\gnat\2017\arm-eabi\lib\gnat\ravenscar-full-stm32f4\adalib\\libgnat.a(s-valuti.o)
 .ARM.extab.text.system__val_util__scan_plus_sign
                0x0800953c        0x0 C:\gnat\2017\arm-eabi\lib\gnat\ravenscar-full-stm32f4\adalib\\libgnat.a(s-valuti.o)
 .ARM.extab.text.system__val_util__scan_sign
                0x0800953c        0x0 C:\gnat\2017\arm-eabi\lib\gnat\ravenscar-full-stm32f4\adalib\\libgnat.a(s-valuti.o)
 .ARM.extab.text.system__val_util__scan_trailing_blanks
                0x0800953c        0x0 C:\gnat\2017\arm-eabi\lib\gnat\ravenscar-full-stm32f4\adalib\\libgnat.a(s-valuti.o)
 .ARM.extab.text.system__val_util__scan_underscore
                0x0800953c        0x0 C:\gnat\2017\arm-eabi\lib\gnat\ravenscar-full-stm32f4\adalib\\libgnat.a(s-valuti.o)
 .ARM.extab.text.system__val_util__scan_exponent
                0x0800953c        0x0 C:\gnat\2017\arm-eabi\lib\gnat\ravenscar-full-stm32f4\adalib\\libgnat.a(s-valuti.o)
 .ARM.extab.text.system__case_util__to_lower
                0x0800953c        0x0 C:\gnat\2017\arm-eabi\lib\gnat\ravenscar-full-stm32f4\adalib\\libgnat.a(s-casuti.o)
 .ARM.extab.text.system__case_util__to_lower__2
                0x0800953c        0x0 C:\gnat\2017\arm-eabi\lib\gnat\ravenscar-full-stm32f4\adalib\\libgnat.a(s-casuti.o)
 .ARM.extab.text.system__case_util__to_mixed
                0x0800953c        0x0 C:\gnat\2017\arm-eabi\lib\gnat\ravenscar-full-stm32f4\adalib\\libgnat.a(s-casuti.o)
 .ARM.extab.text.system__case_util__to_upper
                0x0800953c        0x0 C:\gnat\2017\arm-eabi\lib\gnat\ravenscar-full-stm32f4\adalib\\libgnat.a(s-casuti.o)
 .ARM.extab.text.system__case_util__to_upper__2
                0x0800953c        0x0 C:\gnat\2017\arm-eabi\lib\gnat\ravenscar-full-stm32f4\adalib\\libgnat.a(s-casuti.o)
 .ARM.extab     0x0800953c        0x0 c:/gnat/2017/bin/../lib/gcc/arm-eabi/6.3.1/armv7em/thumb/fpu/fpv4-sp-d16\libgcc.a(unwind-arm.o)
 .ARM.extab     0x0800953c       0x18 c:/gnat/2017/bin/../lib/gcc/arm-eabi/6.3.1/armv7em/thumb/fpu/fpv4-sp-d16\libgcc.a(pr-support.o)
                0x08009554                PROVIDE (__exidx_start, .)

.ARM.exidx      0x08009554      0xc28
 *(.ARM.exidx* .gnu.linkonce.armexidx.*)
 .ARM.exidx     0x08009554        0x8 project_main.o
 .ARM.exidx     0x0800955c       0x10 b__project_main.o
                                 0x18 (size before relaxing)
 .ARM.exidx     0x0800956c       0x10 C:\Users\simon\OneDrive\Documents\STM32\System Project\obj\failure_types.o
 .ARM.exidx     0x0800957c        0x8 C:\Users\simon\OneDrive\Documents\STM32\System Project\obj\failure_log.o
 .ARM.exidx     0x08009584        0x8 C:\Users\simon\OneDrive\Documents\STM32\System Project\obj\first_phase.o
 .ARM.exidx     0x0800958c       0x10 C:\Users\simon\OneDrive\Documents\STM32\System Project\obj\registers.o
 .ARM.exidx     0x0800959c       0x10 C:\Users\simon\OneDrive\Documents\STM32\System Project\obj\signals.o
 .ARM.exidx     0x080095ac       0x20 C:\Users\simon\OneDrive\Documents\STM32\System Project\obj\signal_register_database.o
 .ARM.exidx     0x080095cc       0x28 C:\Users\simon\OneDrive\Documents\STM32\System Project\obj\main_system_checks.o
                                 0x20 (size before relaxing)
 .ARM.exidx.text._ada_setup_pll
                0x080095f4        0x8 C:\gnat\2017\arm-eabi\lib\gnat\ravenscar-full-stm32f4\adalib\\libgnat.a(setup_pll.o)
 .ARM.exidx.text.abort
                0x080095fc        0x8 C:\gnat\2017\arm-eabi\lib\gnat\ravenscar-full-stm32f4\adalib\\libgnat.a(s-macres.o)
 .ARM.exidx.text._exit
                0x08009604        0x0 C:\gnat\2017\arm-eabi\lib\gnat\ravenscar-full-stm32f4\adalib\\libgnat.a(s-macres.o)
                                  0x8 (size before relaxing)
 .ARM.exidx.text.system__machine_reset__stop
                0x08009604        0x0 C:\gnat\2017\arm-eabi\lib\gnat\ravenscar-full-stm32f4\adalib\\libgnat.a(s-macres.o)
                                  0x8 (size before relaxing)
 .ARM.exidx.text.system__tasking__E5sIP
                0x08009604        0x8 C:\gnat\2017\arm-eabi\lib\gnat\ravenscar-full-stm32f4\adalib\\libgnat.a(s-taskin.o)
 .ARM.exidx.text.system__tasking__entry_queueIP
                0x0800960c        0x0 C:\gnat\2017\arm-eabi\lib\gnat\ravenscar-full-stm32f4\adalib\\libgnat.a(s-taskin.o)
                                  0x8 (size before relaxing)
 .ARM.exidx.text.system__tasking__activation_chainIP
                0x0800960c        0x0 C:\gnat\2017\arm-eabi\lib\gnat\ravenscar-full-stm32f4\adalib\\libgnat.a(s-taskin.o)
                                  0x8 (size before relaxing)
 .ARM.exidx.text.__gnat_get_secondary_stack
                0x0800960c        0x8 C:\gnat\2017\arm-eabi\lib\gnat\ravenscar-full-stm32f4\adalib\\libgnat.a(s-taskin.o)
 .ARM.exidx.text.system__tasking__initialize_atcb
                0x08009614        0x8 C:\gnat\2017\arm-eabi\lib\gnat\ravenscar-full-stm32f4\adalib\\libgnat.a(s-taskin.o)
 .ARM.exidx.text.system__tasking__initialize
                0x0800961c        0x8 C:\gnat\2017\arm-eabi\lib\gnat\ravenscar-full-stm32f4\adalib\\libgnat.a(s-taskin.o)
 .ARM.exidx.text.system__tasking__self
                0x08009624        0x8 C:\gnat\2017\arm-eabi\lib\gnat\ravenscar-full-stm32f4\adalib\\libgnat.a(s-taskin.o)
 .ARM.exidx.text.system__tasking__set_sec_stack
                0x0800962c        0x0 C:\gnat\2017\arm-eabi\lib\gnat\ravenscar-full-stm32f4\adalib\\libgnat.a(s-taskin.o)
                                  0x8 (size before relaxing)
 .ARM.exidx.text.system__tasking__storage_size
                0x0800962c        0x0 C:\gnat\2017\arm-eabi\lib\gnat\ravenscar-full-stm32f4\adalib\\libgnat.a(s-taskin.o)
                                  0x8 (size before relaxing)
 .ARM.exidx.text.system__tasking__debug__add_task_id
                0x0800962c        0x8 C:\gnat\2017\arm-eabi\lib\gnat\ravenscar-full-stm32f4\adalib\\libgnat.a(s-tasdeb.o)
 .ARM.exidx.text.system__task_primitives__operations__Tidle_stacksBIP
                0x08009634        0x8 C:\gnat\2017\arm-eabi\lib\gnat\ravenscar-full-stm32f4\adalib\\libgnat.a(s-taprop.o)
 .ARM.exidx.text.system__task_primitives__operations__Tidle_stacks_tableBIP
                0x0800963c        0x0 C:\gnat\2017\arm-eabi\lib\gnat\ravenscar-full-stm32f4\adalib\\libgnat.a(s-taprop.o)
                                  0x8 (size before relaxing)
 .ARM.exidx.text.system__task_primitives__operations__Tidle_tasksBIP
                0x0800963c        0x0 C:\gnat\2017\arm-eabi\lib\gnat\ravenscar-full-stm32f4\adalib\\libgnat.a(s-taprop.o)
                                  0x8 (size before relaxing)
 .ARM.exidx.text.system__task_primitives__operations__self
                0x0800963c        0x8 C:\gnat\2017\arm-eabi\lib\gnat\ravenscar-full-stm32f4\adalib\\libgnat.a(s-taprop.o)
 .ARM.exidx.text.system__task_primitives__operations__sleep
                0x08009644        0x0 C:\gnat\2017\arm-eabi\lib\gnat\ravenscar-full-stm32f4\adalib\\libgnat.a(s-taprop.o)
                                  0x8 (size before relaxing)
 .ARM.exidx.text.system__task_primitives__operations__delay_until
                0x08009644        0x8 C:\gnat\2017\arm-eabi\lib\gnat\ravenscar-full-stm32f4\adalib\\libgnat.a(s-taprop.o)
 .ARM.exidx.text.system__task_primitives__operations__monotonic_clock
                0x0800964c        0x8 C:\gnat\2017\arm-eabi\lib\gnat\ravenscar-full-stm32f4\adalib\\libgnat.a(s-taprop.o)
 .ARM.exidx.text.system__task_primitives__operations__wakeup
                0x08009654        0x8 C:\gnat\2017\arm-eabi\lib\gnat\ravenscar-full-stm32f4\adalib\\libgnat.a(s-taprop.o)
 .ARM.exidx.text.system__task_primitives__operations__set_priority
                0x0800965c        0x8 C:\gnat\2017\arm-eabi\lib\gnat\ravenscar-full-stm32f4\adalib\\libgnat.a(s-taprop.o)
 .ARM.exidx.text.system__task_primitives__operations__get_priority
                0x08009664        0x8 C:\gnat\2017\arm-eabi\lib\gnat\ravenscar-full-stm32f4\adalib\\libgnat.a(s-taprop.o)
 .ARM.exidx.text.system__task_primitives__operations__get_affinity
                0x0800966c        0x0 C:\gnat\2017\arm-eabi\lib\gnat\ravenscar-full-stm32f4\adalib\\libgnat.a(s-taprop.o)
                                  0x8 (size before relaxing)
 .ARM.exidx.text.system__task_primitives__operations__get_cpu
                0x0800966c        0x0 C:\gnat\2017\arm-eabi\lib\gnat\ravenscar-full-stm32f4\adalib\\libgnat.a(s-taprop.o)
                                  0x8 (size before relaxing)
 .ARM.exidx.text.system__task_primitives__operations__get_thread_id
                0x0800966c        0x0 C:\gnat\2017\arm-eabi\lib\gnat\ravenscar-full-stm32f4\adalib\\libgnat.a(s-taprop.o)
                                  0x8 (size before relaxing)
 .ARM.exidx.text.system__task_primitives__operations__enter_task
                0x0800966c        0x8 C:\gnat\2017\arm-eabi\lib\gnat\ravenscar-full-stm32f4\adalib\\libgnat.a(s-taprop.o)
 .ARM.exidx.text.system__task_primitives__operations__idle
                0x08009674        0x8 C:\gnat\2017\arm-eabi\lib\gnat\ravenscar-full-stm32f4\adalib\\libgnat.a(s-taprop.o)
 .ARM.exidx.text.system__task_primitives__operations__initialize_tcb
                0x0800967c        0x8 C:\gnat\2017\arm-eabi\lib\gnat\ravenscar-full-stm32f4\adalib\\libgnat.a(s-taprop.o)
 .ARM.exidx.text.system__task_primitives__operations__create_task
                0x08009684        0x8 C:\gnat\2017\arm-eabi\lib\gnat\ravenscar-full-stm32f4\adalib\\libgnat.a(s-taprop.o)
 .ARM.exidx.text.system__task_primitives__operations__initialize_idle
                0x0800968c        0x8 C:\gnat\2017\arm-eabi\lib\gnat\ravenscar-full-stm32f4\adalib\\libgnat.a(s-taprop.o)
 .ARM.exidx.text.__gnat_initialize_slave
                0x08009694        0x8 C:\gnat\2017\arm-eabi\lib\gnat\ravenscar-full-stm32f4\adalib\\libgnat.a(s-taprop.o)
 .ARM.exidx.text.system__task_primitives__operations__initialize
                0x0800969c        0x8 C:\gnat\2017\arm-eabi\lib\gnat\ravenscar-full-stm32f4\adalib\\libgnat.a(s-taprop.o)
 .ARM.exidx.text.system__task_primitives__operations__is_task_context
                0x080096a4        0x8 C:\gnat\2017\arm-eabi\lib\gnat\ravenscar-full-stm32f4\adalib\\libgnat.a(s-taprop.o)
 .ARM.exidx.text.system__parameters__adjust_storage_size
                0x080096ac        0x8 C:\gnat\2017\arm-eabi\lib\gnat\ravenscar-full-stm32f4\adalib\\libgnat.a(s-parame.o)
 .ARM.exidx.text.__gnat_start_slave_cpus
                0x080096b4        0x0 C:\gnat\2017\arm-eabi\lib\gnat\ravenscar-full-stm32f4\adalib\\libgnat.a(s-bcprmu.o)
                                  0x8 (size before relaxing)
 .ARM.exidx.text.system__bb__cpu_primitives__multiprocessors__poke_handler
                0x080096b4        0x8 C:\gnat\2017\arm-eabi\lib\gnat\ravenscar-full-stm32f4\adalib\\libgnat.a(s-bcprmu.o)
 .ARM.exidx.text.system__bb__timing_events___size
                0x080096bc        0x8 C:\gnat\2017\arm-eabi\lib\gnat\ravenscar-full-stm32f4\adalib\\libgnat.a(s-bbtiev.o)
 .ARM.exidx.text.system__bb__timing_events__timing_eventDF
                0x080096c4        0x0 C:\gnat\2017\arm-eabi\lib\gnat\ravenscar-full-stm32f4\adalib\\libgnat.a(s-bbtiev.o)
                                  0x8 (size before relaxing)
 .ARM.exidx.text.system__bb__timing_events__current_handler
                0x080096c4        0x0 C:\gnat\2017\arm-eabi\lib\gnat\ravenscar-full-stm32f4\adalib\\libgnat.a(s-bbtiev.o)
                                  0x8 (size before relaxing)
 .ARM.exidx.text.system__bb__timing_events__time_of_event
                0x080096c4        0x0 C:\gnat\2017\arm-eabi\lib\gnat\ravenscar-full-stm32f4\adalib\\libgnat.a(s-bbtiev.o)
                                  0x8 (size before relaxing)
 .ARM.exidx.text.system__bb__timing_events__set_handler
                0x080096c4        0x8 C:\gnat\2017\arm-eabi\lib\gnat\ravenscar-full-stm32f4\adalib\\libgnat.a(s-bbtiev.o)
 .ARM.exidx.text.system__bb__timing_events__cancel_handler
                0x080096cc        0x8 C:\gnat\2017\arm-eabi\lib\gnat\ravenscar-full-stm32f4\adalib\\libgnat.a(s-bbtiev.o)
 .ARM.exidx.text.system__bb__timing_events__timing_eventIP
                0x080096d4        0x8 C:\gnat\2017\arm-eabi\lib\gnat\ravenscar-full-stm32f4\adalib\\libgnat.a(s-bbtiev.o)
 .ARM.exidx.text.system__bb__timing_events__Ttiming_eventCFD
                0x080096dc        0x8 C:\gnat\2017\arm-eabi\lib\gnat\ravenscar-full-stm32f4\adalib\\libgnat.a(s-bbtiev.o)
 .ARM.exidx.text.system__bb__timing_events__finalize_spec
                0x080096e4        0x0 C:\gnat\2017\arm-eabi\lib\gnat\ravenscar-full-stm32f4\adalib\\libgnat.a(s-bbtiev.o)
                                  0x8 (size before relaxing)
 .ARM.exidx.text.system__bb__timing_events__execute_expired_timing_events
                0x080096e4        0x8 C:\gnat\2017\arm-eabi\lib\gnat\ravenscar-full-stm32f4\adalib\\libgnat.a(s-bbtiev.o)
 .ARM.exidx.text.system__bb__timing_events__get_next_timeout
                0x080096ec        0x8 C:\gnat\2017\arm-eabi\lib\gnat\ravenscar-full-stm32f4\adalib\\libgnat.a(s-bbtiev.o)
 .ARM.exidx.text.system__bb__timing_events___elabs
                0x080096f4        0x0 C:\gnat\2017\arm-eabi\lib\gnat\ravenscar-full-stm32f4\adalib\\libgnat.a(s-bbtiev.o)
                                  0x8 (size before relaxing)
 .ARM.exidx.text.system__bb__threads__thread_descriptorIP
                0x080096f4        0x8 C:\gnat\2017\arm-eabi\lib\gnat\ravenscar-full-stm32f4\adalib\\libgnat.a(s-bbthre.o)
 .ARM.exidx.text.system__bb__threads__get_affinity
                0x080096fc        0x8 C:\gnat\2017\arm-eabi\lib\gnat\ravenscar-full-stm32f4\adalib\\libgnat.a(s-bbthre.o)
 .ARM.exidx.text.system__bb__threads__get_cpu
                0x08009704        0x0 C:\gnat\2017\arm-eabi\lib\gnat\ravenscar-full-stm32f4\adalib\\libgnat.a(s-bbthre.o)
                                  0x8 (size before relaxing)
 .ARM.exidx.text.system__bb__threads__get_atcb
                0x08009704        0x0 C:\gnat\2017\arm-eabi\lib\gnat\ravenscar-full-stm32f4\adalib\\libgnat.a(s-bbthre.o)
                                  0x8 (size before relaxing)
 .ARM.exidx.text.system__bb__threads__get_priority
                0x08009704        0x0 C:\gnat\2017\arm-eabi\lib\gnat\ravenscar-full-stm32f4\adalib\\libgnat.a(s-bbthre.o)
                                  0x8 (size before relaxing)
 .ARM.exidx.text.system__bb__threads__initialize
                0x08009704        0x8 C:\gnat\2017\arm-eabi\lib\gnat\ravenscar-full-stm32f4\adalib\\libgnat.a(s-bbthre.o)
 .ARM.exidx.text.system__bb__threads__initialize_slave
                0x0800970c        0x8 C:\gnat\2017\arm-eabi\lib\gnat\ravenscar-full-stm32f4\adalib\\libgnat.a(s-bbthre.o)
 .ARM.exidx.text.system__bb__threads__set_atcb
                0x08009714        0x8 C:\gnat\2017\arm-eabi\lib\gnat\ravenscar-full-stm32f4\adalib\\libgnat.a(s-bbthre.o)
 .ARM.exidx.text.system__bb__threads__set_priority
                0x0800971c        0x8 C:\gnat\2017\arm-eabi\lib\gnat\ravenscar-full-stm32f4\adalib\\libgnat.a(s-bbthre.o)
 .ARM.exidx.text.system__bb__threads__sleep
                0x08009724        0x8 C:\gnat\2017\arm-eabi\lib\gnat\ravenscar-full-stm32f4\adalib\\libgnat.a(s-bbthre.o)
 .ARM.exidx.text.system__bb__threads__thread_create
                0x0800972c        0x8 C:\gnat\2017\arm-eabi\lib\gnat\ravenscar-full-stm32f4\adalib\\libgnat.a(s-bbthre.o)
 .ARM.exidx.text.system__bb__threads__thread_self
                0x08009734        0x8 C:\gnat\2017\arm-eabi\lib\gnat\ravenscar-full-stm32f4\adalib\\libgnat.a(s-bbthre.o)
 .ARM.exidx.text.system__bb__threads__wakeup
                0x0800973c        0x8 C:\gnat\2017\arm-eabi\lib\gnat\ravenscar-full-stm32f4\adalib\\libgnat.a(s-bbthre.o)
 .ARM.exidx.text.system__bb__threads__queues__change_priority
                0x08009744        0x8 C:\gnat\2017\arm-eabi\lib\gnat\ravenscar-full-stm32f4\adalib\\libgnat.a(s-bbthqu.o)
 .ARM.exidx.text.__gnat_context_switch_needed
                0x0800974c        0x8 C:\gnat\2017\arm-eabi\lib\gnat\ravenscar-full-stm32f4\adalib\\libgnat.a(s-bbthqu.o)
 .ARM.exidx.text.system__bb__threads__queues__current_priority
                0x08009754        0x8 C:\gnat\2017\arm-eabi\lib\gnat\ravenscar-full-stm32f4\adalib\\libgnat.a(s-bbthqu.o)
 .ARM.exidx.text.system__bb__threads__queues__extract
                0x0800975c        0x8 C:\gnat\2017\arm-eabi\lib\gnat\ravenscar-full-stm32f4\adalib\\libgnat.a(s-bbthqu.o)
 .ARM.exidx.text.system__bb__threads__queues__extract_first_alarm
                0x08009764        0x8 C:\gnat\2017\arm-eabi\lib\gnat\ravenscar-full-stm32f4\adalib\\libgnat.a(s-bbthqu.o)
 .ARM.exidx.text.system__bb__threads__queues__first_thread
                0x0800976c        0x8 C:\gnat\2017\arm-eabi\lib\gnat\ravenscar-full-stm32f4\adalib\\libgnat.a(s-bbthqu.o)
 .ARM.exidx.text.system__bb__threads__queues__get_next_alarm_time
                0x08009774        0x8 C:\gnat\2017\arm-eabi\lib\gnat\ravenscar-full-stm32f4\adalib\\libgnat.a(s-bbthqu.o)
 .ARM.exidx.text.system__bb__threads__queues__insert
                0x0800977c        0x8 C:\gnat\2017\arm-eabi\lib\gnat\ravenscar-full-stm32f4\adalib\\libgnat.a(s-bbthqu.o)
 .ARM.exidx.text.system__bb__threads__queues__insert_alarm
                0x08009784        0x8 C:\gnat\2017\arm-eabi\lib\gnat\ravenscar-full-stm32f4\adalib\\libgnat.a(s-bbthqu.o)
 .ARM.exidx.text.system__bb__threads__queues__running_thread
                0x0800978c        0x8 C:\gnat\2017\arm-eabi\lib\gnat\ravenscar-full-stm32f4\adalib\\libgnat.a(s-bbthqu.o)
 .ARM.exidx.text.system__bb__threads__queues__wakeup_expired_alarms
                0x08009794        0x8 C:\gnat\2017\arm-eabi\lib\gnat\ravenscar-full-stm32f4\adalib\\libgnat.a(s-bbthqu.o)
 .ARM.exidx.text.system__bb__threads__queues__yield
                0x0800979c        0x8 C:\gnat\2017\arm-eabi\lib\gnat\ravenscar-full-stm32f4\adalib\\libgnat.a(s-bbthqu.o)
 .ARM.exidx.text.system__bb__protection__enter_kernel
                0x080097a4        0x8 C:\gnat\2017\arm-eabi\lib\gnat\ravenscar-full-stm32f4\adalib\\libgnat.a(s-bbprot.o)
 .ARM.exidx.text.system__bb__protection__leave_kernel
                0x080097ac        0x8 C:\gnat\2017\arm-eabi\lib\gnat\ravenscar-full-stm32f4\adalib\\libgnat.a(s-bbprot.o)
 .ARM.exidx.text.system__standard_library__exception_dataIP
                0x080097b4        0x8 C:\gnat\2017\arm-eabi\lib\gnat\ravenscar-full-stm32f4\adalib\\libgnat.a(s-stalib.o)
 .ARM.exidx.text.system__standard_library__abort_undefer_direct
                0x080097bc        0x8 C:\gnat\2017\arm-eabi\lib\gnat\ravenscar-full-stm32f4\adalib\\libgnat.a(s-stalib.o)
 .ARM.exidx.text.system__standard_library__adafinal
                0x080097c4        0x0 C:\gnat\2017\arm-eabi\lib\gnat\ravenscar-full-stm32f4\adalib\\libgnat.a(s-stalib.o)
                                  0x8 (size before relaxing)
 .ARM.exidx.text.__gnat_break_start
                0x080097c4        0x8 C:\gnat\2017\arm-eabi\lib\gnat\ravenscar-full-stm32f4\adalib\\libgnat.a(s-stalib.o)
 .ARM.exidx.text.system__soft_links__abort_undefer_raven
                0x080097cc        0x0 C:\gnat\2017\arm-eabi\lib\gnat\ravenscar-full-stm32f4\adalib\\libgnat.a(s-soflin.o)
                                  0x8 (size before relaxing)
 .ARM.exidx.text.system__soft_links__get_current_excep_soft
                0x080097cc        0x8 C:\gnat\2017\arm-eabi\lib\gnat\ravenscar-full-stm32f4\adalib\\libgnat.a(s-soflin.o)
 .ARM.exidx.text.system__soft_links__adafinal_soft
                0x080097d4        0x0 C:\gnat\2017\arm-eabi\lib\gnat\ravenscar-full-stm32f4\adalib\\libgnat.a(s-soflin.o)
                                  0x8 (size before relaxing)
 .ARM.exidx.text.system__soft_links__task_lock_soft
                0x080097d4        0x8 C:\gnat\2017\arm-eabi\lib\gnat\ravenscar-full-stm32f4\adalib\\libgnat.a(s-soflin.o)
 .ARM.exidx.text.system__soft_links__task_termination_soft
                0x080097dc        0x8 C:\gnat\2017\arm-eabi\lib\gnat\ravenscar-full-stm32f4\adalib\\libgnat.a(s-soflin.o)
 .ARM.exidx.text.system__soft_links__task_unlock_soft
                0x080097e4        0x8 C:\gnat\2017\arm-eabi\lib\gnat\ravenscar-full-stm32f4\adalib\\libgnat.a(s-soflin.o)
 .ARM.exidx.text.system__soft_links__abort_defer_raven
                0x080097ec        0x8 C:\gnat\2017\arm-eabi\lib\gnat\ravenscar-full-stm32f4\adalib\\libgnat.a(s-soflin.o)
 .ARM.exidx.text.system__soft_links__get_gnat_exception
                0x080097f4        0x8 C:\gnat\2017\arm-eabi\lib\gnat\ravenscar-full-stm32f4\adalib\\libgnat.a(s-soflin.o)
 .ARM.exidx.text.system__soft_links___elabs
                0x080097fc        0x8 C:\gnat\2017\arm-eabi\lib\gnat\ravenscar-full-stm32f4\adalib\\libgnat.a(s-soflin.o)
 .ARM.exidx.text.__gnat_finalize
                0x08009804        0x0 C:\gnat\2017\arm-eabi\lib\gnat\ravenscar-full-stm32f4\adalib\\libgnat.a(s-init.o)
                                  0x8 (size before relaxing)
 .ARM.exidx.text.__gnat_initialize
                0x08009804        0x0 C:\gnat\2017\arm-eabi\lib\gnat\ravenscar-full-stm32f4\adalib\\libgnat.a(s-init.o)
                                  0x8 (size before relaxing)
 .ARM.exidx.text.__gnat_install_handler
                0x08009804        0x8 C:\gnat\2017\arm-eabi\lib\gnat\ravenscar-full-stm32f4\adalib\\libgnat.a(s-init.o)
 .ARM.exidx.text.__gnat_runtime_initialize
                0x0800980c        0x0 C:\gnat\2017\arm-eabi\lib\gnat\ravenscar-full-stm32f4\adalib\\libgnat.a(s-init.o)
                                  0x8 (size before relaxing)
 .ARM.exidx.text.__gnat_runtime_finalize
                0x0800980c        0x8 C:\gnat\2017\arm-eabi\lib\gnat\ravenscar-full-stm32f4\adalib\\libgnat.a(s-init.o)
 .ARM.exidx.text.system__exception_table__register.part.1
                0x08009814        0x8 C:\gnat\2017\arm-eabi\lib\gnat\ravenscar-full-stm32f4\adalib\\libgnat.a(s-exctab.o)
 .ARM.exidx.text.system__exception_table__exception_data_arrayIP
                0x0800981c        0x8 C:\gnat\2017\arm-eabi\lib\gnat\ravenscar-full-stm32f4\adalib\\libgnat.a(s-exctab.o)
 .ARM.exidx.text.system__exception_table__ThtableBIP
                0x08009824        0x0 C:\gnat\2017\arm-eabi\lib\gnat\ravenscar-full-stm32f4\adalib\\libgnat.a(s-exctab.o)
                                  0x8 (size before relaxing)
 .ARM.exidx.text.system__exception_table__has_name
                0x08009824        0x8 C:\gnat\2017\arm-eabi\lib\gnat\ravenscar-full-stm32f4\adalib\\libgnat.a(s-exctab.o)
 .ARM.exidx.text.system__exception_table__lookup
                0x0800982c        0x8 C:\gnat\2017\arm-eabi\lib\gnat\ravenscar-full-stm32f4\adalib\\libgnat.a(s-exctab.o)
 .ARM.exidx.text.system__exception_table__hash
                0x08009834        0x8 C:\gnat\2017\arm-eabi\lib\gnat\ravenscar-full-stm32f4\adalib\\libgnat.a(s-exctab.o)
 .ARM.exidx.text.system__exception_table__register
                0x0800983c        0x8 C:\gnat\2017\arm-eabi\lib\gnat\ravenscar-full-stm32f4\adalib\\libgnat.a(s-exctab.o)
 .ARM.exidx.text.system__exception_table__get_registered_exceptions
                0x08009844        0x8 C:\gnat\2017\arm-eabi\lib\gnat\ravenscar-full-stm32f4\adalib\\libgnat.a(s-exctab.o)
 .ARM.exidx.text.system__exception_table__internal_exception
                0x0800984c        0x8 C:\gnat\2017\arm-eabi\lib\gnat\ravenscar-full-stm32f4\adalib\\libgnat.a(s-exctab.o)
 .ARM.exidx.text.system__exception_table__register_exception
                0x08009854        0x8 C:\gnat\2017\arm-eabi\lib\gnat\ravenscar-full-stm32f4\adalib\\libgnat.a(s-exctab.o)
 .ARM.exidx.text.system__exception_table__registered_exceptions_count
                0x0800985c        0x8 C:\gnat\2017\arm-eabi\lib\gnat\ravenscar-full-stm32f4\adalib\\libgnat.a(s-exctab.o)
 .ARM.exidx.text.system__exception_table___elabb
                0x08009864        0x8 C:\gnat\2017\arm-eabi\lib\gnat\ravenscar-full-stm32f4\adalib\\libgnat.a(s-exctab.o)
 .ARM.exidx.text.ada__tags__iw_membership__2
                0x0800986c        0x8 C:\gnat\2017\arm-eabi\lib\gnat\ravenscar-full-stm32f4\adalib\\libgnat.a(a-tags.o)
 .ARM.exidx.text.ada__tags__tag_arrayIP
                0x08009874        0x8 C:\gnat\2017\arm-eabi\lib\gnat\ravenscar-full-stm32f4\adalib\\libgnat.a(a-tags.o)
 .ARM.exidx.text.ada__tags__interface_data_elementIP
                0x0800987c        0x0 C:\gnat\2017\arm-eabi\lib\gnat\ravenscar-full-stm32f4\adalib\\libgnat.a(a-tags.o)
                                  0x8 (size before relaxing)
 .ARM.exidx.text.ada__tags__interfaces_arrayIP
                0x0800987c        0x0 C:\gnat\2017\arm-eabi\lib\gnat\ravenscar-full-stm32f4\adalib\\libgnat.a(a-tags.o)
                                  0x8 (size before relaxing)
 .ARM.exidx.text.ada__tags__interface_dataIP
                0x0800987c        0x0 C:\gnat\2017\arm-eabi\lib\gnat\ravenscar-full-stm32f4\adalib\\libgnat.a(a-tags.o)
                                  0x8 (size before relaxing)
 .ARM.exidx.text.ada__tags__select_specific_data_elementIP
                0x0800987c        0x0 C:\gnat\2017\arm-eabi\lib\gnat\ravenscar-full-stm32f4\adalib\\libgnat.a(a-tags.o)
                                  0x8 (size before relaxing)
 .ARM.exidx.text.ada__tags__select_specific_data_arrayIP
                0x0800987c        0x0 C:\gnat\2017\arm-eabi\lib\gnat\ravenscar-full-stm32f4\adalib\\libgnat.a(a-tags.o)
                                  0x8 (size before relaxing)
 .ARM.exidx.text.ada__tags__select_specific_dataIP
                0x0800987c        0x0 C:\gnat\2017\arm-eabi\lib\gnat\ravenscar-full-stm32f4\adalib\\libgnat.a(a-tags.o)
                                  0x8 (size before relaxing)
 .ARM.exidx.text.ada__tags__address_arrayIP
                0x0800987c        0x0 C:\gnat\2017\arm-eabi\lib\gnat\ravenscar-full-stm32f4\adalib\\libgnat.a(a-tags.o)
                                  0x8 (size before relaxing)
 .ARM.exidx.text.ada__tags__tag_tableIP
                0x0800987c        0x0 C:\gnat\2017\arm-eabi\lib\gnat\ravenscar-full-stm32f4\adalib\\libgnat.a(a-tags.o)
                                  0x8 (size before relaxing)
 .ARM.exidx.text.ada__tags__type_specific_dataIP
                0x0800987c        0x0 C:\gnat\2017\arm-eabi\lib\gnat\ravenscar-full-stm32f4\adalib\\libgnat.a(a-tags.o)
                                  0x8 (size before relaxing)
 .ARM.exidx.text.ada__tags__dispatch_table_wrapperIP
                0x0800987c        0x0 C:\gnat\2017\arm-eabi\lib\gnat\ravenscar-full-stm32f4\adalib\\libgnat.a(a-tags.o)
                                  0x8 (size before relaxing)
 .ARM.exidx.text.ada__tags__no_dispatch_table_wrapperIP
                0x0800987c        0x0 C:\gnat\2017\arm-eabi\lib\gnat\ravenscar-full-stm32f4\adalib\\libgnat.a(a-tags.o)
                                  0x8 (size before relaxing)
 .ARM.exidx.text.ada__tags__object_specific_data_arrayIP
                0x0800987c        0x0 C:\gnat\2017\arm-eabi\lib\gnat\ravenscar-full-stm32f4\adalib\\libgnat.a(a-tags.o)
                                  0x8 (size before relaxing)
 .ARM.exidx.text.ada__tags__object_specific_dataIP
                0x0800987c        0x0 C:\gnat\2017\arm-eabi\lib\gnat\ravenscar-full-stm32f4\adalib\\libgnat.a(a-tags.o)
                                  0x8 (size before relaxing)
 .ARM.exidx.text.ada__tags__external_tag_htable__TtableBIPXn
                0x0800987c        0x0 C:\gnat\2017\arm-eabi\lib\gnat\ravenscar-full-stm32f4\adalib\\libgnat.a(a-tags.o)
                                  0x8 (size before relaxing)
 .ARM.exidx.text.ada__tags__external_tag_htable__get_firstXn
                0x0800987c        0x0 C:\gnat\2017\arm-eabi\lib\gnat\ravenscar-full-stm32f4\adalib\\libgnat.a(a-tags.o)
                                  0x8 (size before relaxing)
 .ARM.exidx.text.ada__tags__external_tag_htable__get_nextXn
                0x0800987c        0x8 C:\gnat\2017\arm-eabi\lib\gnat\ravenscar-full-stm32f4\adalib\\libgnat.a(a-tags.o)
 .ARM.exidx.text.ada__tags__external_tag_htable__get_non_nullXn
                0x08009884        0x8 C:\gnat\2017\arm-eabi\lib\gnat\ravenscar-full-stm32f4\adalib\\libgnat.a(a-tags.o)
 .ARM.exidx.text.ada__tags__external_tag_htable__resetXn
                0x0800988c        0x0 C:\gnat\2017\arm-eabi\lib\gnat\ravenscar-full-stm32f4\adalib\\libgnat.a(a-tags.o)
                                  0x8 (size before relaxing)
 .ARM.exidx.text.ada__tags__htable_subprograms__equalXn
                0x0800988c        0x8 C:\gnat\2017\arm-eabi\lib\gnat\ravenscar-full-stm32f4\adalib\\libgnat.a(a-tags.o)
 .ARM.exidx.text.ada__tags__htable_subprograms__get_ht_linkXn
                0x08009894        0x0 C:\gnat\2017\arm-eabi\lib\gnat\ravenscar-full-stm32f4\adalib\\libgnat.a(a-tags.o)
                                  0x8 (size before relaxing)
 .ARM.exidx.text.ada__tags__htable_subprograms__hashXn
                0x08009894        0x8 C:\gnat\2017\arm-eabi\lib\gnat\ravenscar-full-stm32f4\adalib\\libgnat.a(a-tags.o)
 .ARM.exidx.text.ada__tags__external_tag_htable__getXn
                0x0800989c        0x8 C:\gnat\2017\arm-eabi\lib\gnat\ravenscar-full-stm32f4\adalib\\libgnat.a(a-tags.o)
 .ARM.exidx.text.ada__tags__external_tag_htable__presentXn
                0x080098a4        0x8 C:\gnat\2017\arm-eabi\lib\gnat\ravenscar-full-stm32f4\adalib\\libgnat.a(a-tags.o)
 .ARM.exidx.text.ada__tags__external_tag_htable__removeXn
                0x080098ac        0x8 C:\gnat\2017\arm-eabi\lib\gnat\ravenscar-full-stm32f4\adalib\\libgnat.a(a-tags.o)
 .ARM.exidx.text.ada__tags__external_tag_htable__setXn
                0x080098b4        0x8 C:\gnat\2017\arm-eabi\lib\gnat\ravenscar-full-stm32f4\adalib\\libgnat.a(a-tags.o)
 .ARM.exidx.text.ada__tags__external_tag_htable__set_if_not_presentXn
                0x080098bc        0x8 C:\gnat\2017\arm-eabi\lib\gnat\ravenscar-full-stm32f4\adalib\\libgnat.a(a-tags.o)
 .ARM.exidx.text.ada__tags__htable_subprograms__set_ht_linkXn
                0x080098c4        0x8 C:\gnat\2017\arm-eabi\lib\gnat\ravenscar-full-stm32f4\adalib\\libgnat.a(a-tags.o)
 .ARM.exidx.text.ada__tags__is_abstract
                0x080098cc        0x8 C:\gnat\2017\arm-eabi\lib\gnat\ravenscar-full-stm32f4\adalib\\libgnat.a(a-tags.o)
 .ARM.exidx.text.ada__tags__base_address
                0x080098d4        0x8 C:\gnat\2017\arm-eabi\lib\gnat\ravenscar-full-stm32f4\adalib\\libgnat.a(a-tags.o)
 .ARM.exidx.text.ada__tags__check_tsd
                0x080098dc        0x8 C:\gnat\2017\arm-eabi\lib\gnat\ravenscar-full-stm32f4\adalib\\libgnat.a(a-tags.o)
 .ARM.exidx.text.ada__tags__displace
                0x080098e4        0x8 C:\gnat\2017\arm-eabi\lib\gnat\ravenscar-full-stm32f4\adalib\\libgnat.a(a-tags.o)
 .ARM.exidx.text.ada__tags__dt
                0x080098ec        0x8 C:\gnat\2017\arm-eabi\lib\gnat\ravenscar-full-stm32f4\adalib\\libgnat.a(a-tags.o)
 .ARM.exidx.text.ada__tags__iw_membership
                0x080098f4        0x8 C:\gnat\2017\arm-eabi\lib\gnat\ravenscar-full-stm32f4\adalib\\libgnat.a(a-tags.o)
 .ARM.exidx.text.ada__tags__expanded_name
                0x080098fc        0x8 C:\gnat\2017\arm-eabi\lib\gnat\ravenscar-full-stm32f4\adalib\\libgnat.a(a-tags.o)
 .ARM.exidx.text.ada__tags__external_tag
                0x08009904        0x0 C:\gnat\2017\arm-eabi\lib\gnat\ravenscar-full-stm32f4\adalib\\libgnat.a(a-tags.o)
                                  0x8 (size before relaxing)
 .ARM.exidx.text.ada__tags__get_entry_index
                0x08009904        0x8 C:\gnat\2017\arm-eabi\lib\gnat\ravenscar-full-stm32f4\adalib\\libgnat.a(a-tags.o)
 .ARM.exidx.text.ada__tags__get_prim_op_kind
                0x0800990c        0x0 C:\gnat\2017\arm-eabi\lib\gnat\ravenscar-full-stm32f4\adalib\\libgnat.a(a-tags.o)
                                  0x8 (size before relaxing)
 .ARM.exidx.text.ada__tags__get_offset_index
                0x0800990c        0x0 C:\gnat\2017\arm-eabi\lib\gnat\ravenscar-full-stm32f4\adalib\\libgnat.a(a-tags.o)
                                  0x8 (size before relaxing)
 .ARM.exidx.text.ada__tags__get_tagged_kind
                0x0800990c        0x0 C:\gnat\2017\arm-eabi\lib\gnat\ravenscar-full-stm32f4\adalib\\libgnat.a(a-tags.o)
                                  0x8 (size before relaxing)
 .ARM.exidx.text.ada__tags__interface_ancestor_tags
                0x0800990c        0x8 C:\gnat\2017\arm-eabi\lib\gnat\ravenscar-full-stm32f4\adalib\\libgnat.a(a-tags.o)
 .ARM.exidx.text.ada__tags__internal_tag
                0x08009914        0x8 C:\gnat\2017\arm-eabi\lib\gnat\ravenscar-full-stm32f4\adalib\\libgnat.a(a-tags.o)
 .ARM.exidx.text.ada__tags__is_descendant_at_same_level
                0x0800991c        0x8 C:\gnat\2017\arm-eabi\lib\gnat\ravenscar-full-stm32f4\adalib\\libgnat.a(a-tags.o)
 .ARM.exidx.text.ada__tags__descendant_tag
                0x08009924        0x8 C:\gnat\2017\arm-eabi\lib\gnat\ravenscar-full-stm32f4\adalib\\libgnat.a(a-tags.o)
 .ARM.exidx.text.ada__tags__offset_to_top
                0x0800992c        0x8 C:\gnat\2017\arm-eabi\lib\gnat\ravenscar-full-stm32f4\adalib\\libgnat.a(a-tags.o)
 .ARM.exidx.text.ada__tags__needs_finalization
                0x08009934        0x0 C:\gnat\2017\arm-eabi\lib\gnat\ravenscar-full-stm32f4\adalib\\libgnat.a(a-tags.o)
                                  0x8 (size before relaxing)
 .ARM.exidx.text.ada__tags__parent_size
                0x08009934        0x8 C:\gnat\2017\arm-eabi\lib\gnat\ravenscar-full-stm32f4\adalib\\libgnat.a(a-tags.o)
 .ARM.exidx.text.ada__tags__parent_tag
                0x0800993c        0x8 C:\gnat\2017\arm-eabi\lib\gnat\ravenscar-full-stm32f4\adalib\\libgnat.a(a-tags.o)
 .ARM.exidx.text.ada__tags__register_interface_offset
                0x08009944        0x8 C:\gnat\2017\arm-eabi\lib\gnat\ravenscar-full-stm32f4\adalib\\libgnat.a(a-tags.o)
 .ARM.exidx.text.ada__tags__register_tag
                0x0800994c        0x8 C:\gnat\2017\arm-eabi\lib\gnat\ravenscar-full-stm32f4\adalib\\libgnat.a(a-tags.o)
 .ARM.exidx.text.ada__tags__secondary_tag
                0x08009954        0x8 C:\gnat\2017\arm-eabi\lib\gnat\ravenscar-full-stm32f4\adalib\\libgnat.a(a-tags.o)
 .ARM.exidx.text.ada__tags__set_entry_index
                0x0800995c        0x8 C:\gnat\2017\arm-eabi\lib\gnat\ravenscar-full-stm32f4\adalib\\libgnat.a(a-tags.o)
 .ARM.exidx.text.ada__tags__set_dynamic_offset_to_top
                0x08009964        0x8 C:\gnat\2017\arm-eabi\lib\gnat\ravenscar-full-stm32f4\adalib\\libgnat.a(a-tags.o)
 .ARM.exidx.text.ada__tags__set_prim_op_kind
                0x0800996c        0x8 C:\gnat\2017\arm-eabi\lib\gnat\ravenscar-full-stm32f4\adalib\\libgnat.a(a-tags.o)
 .ARM.exidx.text.ada__tags__unregister_tag
                0x08009974        0x0 C:\gnat\2017\arm-eabi\lib\gnat\ravenscar-full-stm32f4\adalib\\libgnat.a(a-tags.o)
                                  0x8 (size before relaxing)
 .ARM.exidx.text.ada__tags__wide_expanded_name
                0x08009974        0x8 C:\gnat\2017\arm-eabi\lib\gnat\ravenscar-full-stm32f4\adalib\\libgnat.a(a-tags.o)
 .ARM.exidx.text.ada__tags__wide_wide_expanded_name
                0x0800997c        0x0 C:\gnat\2017\arm-eabi\lib\gnat\ravenscar-full-stm32f4\adalib\\libgnat.a(a-tags.o)
                                  0x8 (size before relaxing)
 .ARM.exidx.text.ada__tags___elabb
                0x0800997c        0x8 C:\gnat\2017\arm-eabi\lib\gnat\ravenscar-full-stm32f4\adalib\\libgnat.a(a-tags.o)
 .ARM.exidx.text.ada__exceptions__exception_occurrenceIP
                0x08009984        0x0 C:\gnat\2017\arm-eabi\lib\gnat\ravenscar-full-stm32f4\adalib\\libgnat.a(a-except.o)
                                  0x8 (size before relaxing)
 .ARM.exidx.text.ada__exceptions__exception_data__append_info_addressXn
                0x08009984        0x8 C:\gnat\2017\arm-eabi\lib\gnat\ravenscar-full-stm32f4\adalib\\libgnat.a(a-except.o)
 .ARM.exidx.text.ada__exceptions__exception_data__append_info_basic_exception_informationXn
                0x0800998c        0x8 C:\gnat\2017\arm-eabi\lib\gnat\ravenscar-full-stm32f4\adalib\\libgnat.a(a-except.o)
 .ARM.exidx.text.ada__exceptions__exception_data__append_info_characterXn
                0x08009994        0x8 C:\gnat\2017\arm-eabi\lib\gnat\ravenscar-full-stm32f4\adalib\\libgnat.a(a-except.o)
 .ARM.exidx.text.__gnat_append_info_e_msg
                0x0800999c        0x8 C:\gnat\2017\arm-eabi\lib\gnat\ravenscar-full-stm32f4\adalib\\libgnat.a(a-except.o)
 .ARM.exidx.text.ada__exceptions__exception_data__append_info_exception_nameXn
                0x080099a4        0x0 C:\gnat\2017\arm-eabi\lib\gnat\ravenscar-full-stm32f4\adalib\\libgnat.a(a-except.o)
                                  0x8 (size before relaxing)
 .ARM.exidx.text.ada__exceptions__exception_data__append_info_exception_name__2Xn
                0x080099a4        0x8 C:\gnat\2017\arm-eabi\lib\gnat\ravenscar-full-stm32f4\adalib\\libgnat.a(a-except.o)
 .ARM.exidx.text.ada__exceptions__exception_data__exception_info_maxlengthXn
                0x080099ac        0x8 C:\gnat\2017\arm-eabi\lib\gnat\ravenscar-full-stm32f4\adalib\\libgnat.a(a-except.o)
 .ARM.exidx.text.ada__exceptions__exception_data__append_info_natXn
                0x080099b4        0x8 C:\gnat\2017\arm-eabi\lib\gnat\ravenscar-full-stm32f4\adalib\\libgnat.a(a-except.o)
 .ARM.exidx.text.ada__exceptions__exception_data__append_info_nlXn
                0x080099bc        0x8 C:\gnat\2017\arm-eabi\lib\gnat\ravenscar-full-stm32f4\adalib\\libgnat.a(a-except.o)
 .ARM.exidx.text.ada__exceptions__exception_data__append_info_stringXn
                0x080099c4        0x8 C:\gnat\2017\arm-eabi\lib\gnat\ravenscar-full-stm32f4\adalib\\libgnat.a(a-except.o)
 .ARM.exidx.text.__gnat_append_info_u_e_info
                0x080099cc        0x8 C:\gnat\2017\arm-eabi\lib\gnat\ravenscar-full-stm32f4\adalib\\libgnat.a(a-except.o)
 .ARM.exidx.text.ada__exceptions__exception_data__append_info_untailored_exception_tracebackXn
                0x080099d4        0x8 C:\gnat\2017\arm-eabi\lib\gnat\ravenscar-full-stm32f4\adalib\\libgnat.a(a-except.o)
 .ARM.exidx.text.ada__exceptions__exception_data__basic_exception_info_maxlengthXn
                0x080099dc        0x8 C:\gnat\2017\arm-eabi\lib\gnat\ravenscar-full-stm32f4\adalib\\libgnat.a(a-except.o)
 .ARM.exidx.text.ada__exceptions__exception_data__exception_informationXn
                0x080099e4        0x8 C:\gnat\2017\arm-eabi\lib\gnat\ravenscar-full-stm32f4\adalib\\libgnat.a(a-except.o)
 .ARM.exidx.text.__gnat_exception_msg_len
                0x080099ec        0x8 C:\gnat\2017\arm-eabi\lib\gnat\ravenscar-full-stm32f4\adalib\\libgnat.a(a-except.o)
 .ARM.exidx.text.ada__exceptions__exception_data__exception_name_lengthXn
                0x080099f4        0x8 C:\gnat\2017\arm-eabi\lib\gnat\ravenscar-full-stm32f4\adalib\\libgnat.a(a-except.o)
 .ARM.exidx.text.ada__exceptions__exception_data__exception_name_length__2Xn
                0x080099fc        0x8 C:\gnat\2017\arm-eabi\lib\gnat\ravenscar-full-stm32f4\adalib\\libgnat.a(a-except.o)
 .ARM.exidx.text.ada__exceptions__exception_data__untailored_exception_tracebackXn
                0x08009a04        0x8 C:\gnat\2017\arm-eabi\lib\gnat\ravenscar-full-stm32f4\adalib\\libgnat.a(a-except.o)
 .ARM.exidx.text.ada__exceptions__exception_data__untailored_exception_informationXn
                0x08009a0c        0x0 C:\gnat\2017\arm-eabi\lib\gnat\ravenscar-full-stm32f4\adalib\\libgnat.a(a-except.o)
                                  0x8 (size before relaxing)
 .ARM.exidx.text.ada__exceptions__exception_data__set_exception_c_msg__append_number.6443
                0x08009a0c        0x8 C:\gnat\2017\arm-eabi\lib\gnat\ravenscar-full-stm32f4\adalib\\libgnat.a(a-except.o)
 .ARM.exidx.text.ada__exceptions__exception_data__set_exception_c_msgXn
                0x08009a14        0x8 C:\gnat\2017\arm-eabi\lib\gnat\ravenscar-full-stm32f4\adalib\\libgnat.a(a-except.o)
 .ARM.exidx.text.ada__exceptions__exception_data__set_exception_msgXn
                0x08009a1c        0x8 C:\gnat\2017\arm-eabi\lib\gnat\ravenscar-full-stm32f4\adalib\\libgnat.a(a-except.o)
 .ARM.exidx.text.ada__exceptions__exception_data__tailored_exception_tracebackXn
                0x08009a24        0x8 C:\gnat\2017\arm-eabi\lib\gnat\ravenscar-full-stm32f4\adalib\\libgnat.a(a-except.o)
 .ARM.exidx.text.ada__exceptions__exception_data__untailored_exception_traceback_maxlengthXn
                0x08009a2c        0x8 C:\gnat\2017\arm-eabi\lib\gnat\ravenscar-full-stm32f4\adalib\\libgnat.a(a-except.o)
 .ARM.exidx.text.ada__exceptions__exception_propagation__allocate_occurrenceXn
                0x08009a34        0x8 C:\gnat\2017\arm-eabi\lib\gnat\ravenscar-full-stm32f4\adalib\\libgnat.a(a-except.o)
 .ARM.exidx.text.ada__exceptions__exception_propagation__gnat_gcc_exception_cleanupXn
                0x08009a3c        0x8 C:\gnat\2017\arm-eabi\lib\gnat\ravenscar-full-stm32f4\adalib\\libgnat.a(a-except.o)
 .ARM.exidx.text.ada__exceptions__exception_propagation__set_foreign_occurrenceXn
                0x08009a44        0x8 C:\gnat\2017\arm-eabi\lib\gnat\ravenscar-full-stm32f4\adalib\\libgnat.a(a-except.o)
 .ARM.exidx.text.__gnat_setup_current_excep
                0x08009a4c        0x8 C:\gnat\2017\arm-eabi\lib\gnat\ravenscar-full-stm32f4\adalib\\libgnat.a(a-except.o)
 .ARM.exidx.text.__gnat_begin_handler
                0x08009a54        0x8 C:\gnat\2017\arm-eabi\lib\gnat\ravenscar-full-stm32f4\adalib\\libgnat.a(a-except.o)
 .ARM.exidx.text.__gnat_end_handler
                0x08009a5c        0x8 C:\gnat\2017\arm-eabi\lib\gnat\ravenscar-full-stm32f4\adalib\\libgnat.a(a-except.o)
 .ARM.exidx.text.__gnat_reraise_zcx
                0x08009a64        0x8 C:\gnat\2017\arm-eabi\lib\gnat\ravenscar-full-stm32f4\adalib\\libgnat.a(a-except.o)
 .ARM.exidx.text.ada__exceptions__exception_propagation__propagate_gcc_exceptionXn
                0x08009a6c        0x8 C:\gnat\2017\arm-eabi\lib\gnat\ravenscar-full-stm32f4\adalib\\libgnat.a(a-except.o)
 .ARM.exidx.text.ada__exceptions__exception_propagation__propagate_exceptionXn
                0x08009a74        0x8 C:\gnat\2017\arm-eabi\lib\gnat\ravenscar-full-stm32f4\adalib\\libgnat.a(a-except.o)
 .ARM.exidx.text.__gnat_set_exception_parameter
                0x08009a7c        0x8 C:\gnat\2017\arm-eabi\lib\gnat\ravenscar-full-stm32f4\adalib\\libgnat.a(a-except.o)
 .ARM.exidx.text.__gnat_unhandled_except_handler
                0x08009a84        0x8 C:\gnat\2017\arm-eabi\lib\gnat\ravenscar-full-stm32f4\adalib\\libgnat.a(a-except.o)
 .ARM.exidx.text.__gnat_eid_for
                0x08009a8c        0x8 C:\gnat\2017\arm-eabi\lib\gnat\ravenscar-full-stm32f4\adalib\\libgnat.a(a-except.o)
 .ARM.exidx.text.__gnat_foreign_data_for
                0x08009a94        0x8 C:\gnat\2017\arm-eabi\lib\gnat\ravenscar-full-stm32f4\adalib\\libgnat.a(a-except.o)
 .ARM.exidx.text.__gnat_is_handled_by_others
                0x08009a9c        0x0 C:\gnat\2017\arm-eabi\lib\gnat\ravenscar-full-stm32f4\adalib\\libgnat.a(a-except.o)
                                  0x8 (size before relaxing)
 .ARM.exidx.text.__gnat_language_for
                0x08009a9c        0x0 C:\gnat\2017\arm-eabi\lib\gnat\ravenscar-full-stm32f4\adalib\\libgnat.a(a-except.o)
                                  0x8 (size before relaxing)
 .ARM.exidx.text.ada__exceptions__exception_traces__notify_exception__B277b___finalizerXn.6702
                0x08009a9c        0x8 C:\gnat\2017\arm-eabi\lib\gnat\ravenscar-full-stm32f4\adalib\\libgnat.a(a-except.o)
 .ARM.exidx.text.ada__exceptions__exception_traces__notify_exceptionXn
                0x08009aa4        0x8 C:\gnat\2017\arm-eabi\lib\gnat\ravenscar-full-stm32f4\adalib\\libgnat.a(a-except.o)
 .ARM.exidx.text.__gnat_notify_handled_exception
                0x08009aac        0x8 C:\gnat\2017\arm-eabi\lib\gnat\ravenscar-full-stm32f4\adalib\\libgnat.a(a-except.o)
 .ARM.exidx.text.__gnat_notify_unhandled_exception
                0x08009ab4        0x8 C:\gnat\2017\arm-eabi\lib\gnat\ravenscar-full-stm32f4\adalib\\libgnat.a(a-except.o)
 .ARM.exidx.text.ada__exceptions__exception_traces__unhandled_exception_terminateXn
                0x08009abc        0x8 C:\gnat\2017\arm-eabi\lib\gnat\ravenscar-full-stm32f4\adalib\\libgnat.a(a-except.o)
 .ARM.exidx.text.ada__exceptions__stream_attributes__eid_to_stringXn
                0x08009ac4        0x8 C:\gnat\2017\arm-eabi\lib\gnat\ravenscar-full-stm32f4\adalib\\libgnat.a(a-except.o)
 .ARM.exidx.text.ada__exceptions__stream_attributes__eo_to_stringXn
                0x08009acc        0x0 C:\gnat\2017\arm-eabi\lib\gnat\ravenscar-full-stm32f4\adalib\\libgnat.a(a-except.o)
                                  0x8 (size before relaxing)
 .ARM.exidx.text.ada__exceptions__stream_attributes__string_to_eidXn
                0x08009acc        0x8 C:\gnat\2017\arm-eabi\lib\gnat\ravenscar-full-stm32f4\adalib\\libgnat.a(a-except.o)
 .ARM.exidx.text.ada__exceptions__stream_attributes__string_to_eo__bad_eo.6747
                0x08009ad4        0x8 C:\gnat\2017\arm-eabi\lib\gnat\ravenscar-full-stm32f4\adalib\\libgnat.a(a-except.o)
 .ARM.exidx.text.ada__exceptions__stream_attributes__string_to_eoXn
                0x08009adc        0x8 C:\gnat\2017\arm-eabi\lib\gnat\ravenscar-full-stm32f4\adalib\\libgnat.a(a-except.o)
 .ARM.exidx.text.ada__exceptions__stream_attributes__string_to_eo__next_string.6749
                0x08009ae4        0x8 C:\gnat\2017\arm-eabi\lib\gnat\ravenscar-full-stm32f4\adalib\\libgnat.a(a-except.o)
 .ARM.exidx.text.ada__exceptions__poll
                0x08009aec        0x8 C:\gnat\2017\arm-eabi\lib\gnat\ravenscar-full-stm32f4\adalib\\libgnat.a(a-except.o)
 .ARM.exidx.text.ada__exceptions__code_address_for_aaa
                0x08009af4        0x0 C:\gnat\2017\arm-eabi\lib\gnat\ravenscar-full-stm32f4\adalib\\libgnat.a(a-except.o)
                                  0x8 (size before relaxing)
 .ARM.exidx.text.ada__exceptions__call_chain
                0x08009af4        0x8 C:\gnat\2017\arm-eabi\lib\gnat\ravenscar-full-stm32f4\adalib\\libgnat.a(a-except.o)
 .ARM.exidx.text.ada__exceptions__eid_to_string
                0x08009afc        0x8 C:\gnat\2017\arm-eabi\lib\gnat\ravenscar-full-stm32f4\adalib\\libgnat.a(a-except.o)
 .ARM.exidx.text.ada__exceptions__eo_to_string
                0x08009b04        0x0 C:\gnat\2017\arm-eabi\lib\gnat\ravenscar-full-stm32f4\adalib\\libgnat.a(a-except.o)
                                  0x8 (size before relaxing)
 .ARM.exidx.text.ada__exceptions__exception_identity
                0x08009b04        0x8 C:\gnat\2017\arm-eabi\lib\gnat\ravenscar-full-stm32f4\adalib\\libgnat.a(a-except.o)
 .ARM.exidx.text.ada__exceptions__exception_information
                0x08009b0c        0x8 C:\gnat\2017\arm-eabi\lib\gnat\ravenscar-full-stm32f4\adalib\\libgnat.a(a-except.o)
 .ARM.exidx.text.ada__exceptions__exception_message
                0x08009b14        0x8 C:\gnat\2017\arm-eabi\lib\gnat\ravenscar-full-stm32f4\adalib\\libgnat.a(a-except.o)
 .ARM.exidx.text.ada__exceptions__exception_name
                0x08009b1c        0x0 C:\gnat\2017\arm-eabi\lib\gnat\ravenscar-full-stm32f4\adalib\\libgnat.a(a-except.o)
                                  0x8 (size before relaxing)
 .ARM.exidx.text.ada__exceptions__exception_name__2
                0x08009b1c        0x8 C:\gnat\2017\arm-eabi\lib\gnat\ravenscar-full-stm32f4\adalib\\libgnat.a(a-except.o)
 .ARM.exidx.text.ada__exceptions__exception_name_simple
                0x08009b24        0x8 C:\gnat\2017\arm-eabi\lib\gnat\ravenscar-full-stm32f4\adalib\\libgnat.a(a-except.o)
 .ARM.exidx.text.__gnat_get_exception_machine_occurrence
                0x08009b2c        0x8 C:\gnat\2017\arm-eabi\lib\gnat\ravenscar-full-stm32f4\adalib\\libgnat.a(a-except.o)
 .ARM.exidx.text.ada__exceptions__image
                0x08009b34        0x8 C:\gnat\2017\arm-eabi\lib\gnat\ravenscar-full-stm32f4\adalib\\libgnat.a(a-except.o)
 .ARM.exidx.text.__gnat_raise_constraint_error
                0x08009b3c        0x8 C:\gnat\2017\arm-eabi\lib\gnat\ravenscar-full-stm32f4\adalib\\libgnat.a(a-except.o)
 .ARM.exidx.text.__gnat_raise_constraint_error_msg
                0x08009b44        0x0 C:\gnat\2017\arm-eabi\lib\gnat\ravenscar-full-stm32f4\adalib\\libgnat.a(a-except.o)
                                  0x8 (size before relaxing)
 .ARM.exidx.text.ada__exceptions__complete_occurrence
                0x08009b44        0x8 C:\gnat\2017\arm-eabi\lib\gnat\ravenscar-full-stm32f4\adalib\\libgnat.a(a-except.o)
 .ARM.exidx.text.ada__exceptions__complete_and_propagate_occurrence
                0x08009b4c        0x8 C:\gnat\2017\arm-eabi\lib\gnat\ravenscar-full-stm32f4\adalib\\libgnat.a(a-except.o)
 .ARM.exidx.text.ada__exceptions__raise_exception
                0x08009b54        0x8 C:\gnat\2017\arm-eabi\lib\gnat\ravenscar-full-stm32f4\adalib\\libgnat.a(a-except.o)
 .ARM.exidx.text.__gnat_raise_exception
                0x08009b5c        0x8 C:\gnat\2017\arm-eabi\lib\gnat\ravenscar-full-stm32f4\adalib\\libgnat.a(a-except.o)
 .ARM.exidx.text.ada__exceptions__raise_exception_no_defer
                0x08009b64        0x0 C:\gnat\2017\arm-eabi\lib\gnat\ravenscar-full-stm32f4\adalib\\libgnat.a(a-except.o)
                                  0x8 (size before relaxing)
 .ARM.exidx.text.ada__exceptions__raise_from_controlled_operation___finalizer.6963
                0x08009b64        0x8 C:\gnat\2017\arm-eabi\lib\gnat\ravenscar-full-stm32f4\adalib\\libgnat.a(a-except.o)
 .ARM.exidx.text.__gnat_raise_from_controlled_operation
                0x08009b6c        0x8 C:\gnat\2017\arm-eabi\lib\gnat\ravenscar-full-stm32f4\adalib\\libgnat.a(a-except.o)
 .ARM.exidx.text.ada__exceptions__raise_from_controlled_operation__B_3___finalizer.6998
                0x08009b74        0x8 C:\gnat\2017\arm-eabi\lib\gnat\ravenscar-full-stm32f4\adalib\\libgnat.a(a-except.o)
 .ARM.exidx.text.ada__exceptions__create_occurrence_from_signal_handler
                0x08009b7c        0x8 C:\gnat\2017\arm-eabi\lib\gnat\ravenscar-full-stm32f4\adalib\\libgnat.a(a-except.o)
 .ARM.exidx.text.__gnat_create_machine_occurrence_from_signal_handler
                0x08009b84        0x8 C:\gnat\2017\arm-eabi\lib\gnat\ravenscar-full-stm32f4\adalib\\libgnat.a(a-except.o)
 .ARM.exidx.text.ada__exceptions__raise_from_signal_handler
                0x08009b8c        0x8 C:\gnat\2017\arm-eabi\lib\gnat\ravenscar-full-stm32f4\adalib\\libgnat.a(a-except.o)
 .ARM.exidx.text.__gnat_raise_program_error
                0x08009b94        0x8 C:\gnat\2017\arm-eabi\lib\gnat\ravenscar-full-stm32f4\adalib\\libgnat.a(a-except.o)
 .ARM.exidx.text.__gnat_raise_program_error_msg
                0x08009b9c        0x0 C:\gnat\2017\arm-eabi\lib\gnat\ravenscar-full-stm32f4\adalib\\libgnat.a(a-except.o)
                                  0x8 (size before relaxing)
 .ARM.exidx.text.__gnat_raise_storage_error
                0x08009b9c        0x0 C:\gnat\2017\arm-eabi\lib\gnat\ravenscar-full-stm32f4\adalib\\libgnat.a(a-except.o)
                                  0x8 (size before relaxing)
 .ARM.exidx.text.__gnat_raise_storage_error_msg
                0x08009b9c        0x0 C:\gnat\2017\arm-eabi\lib\gnat\ravenscar-full-stm32f4\adalib\\libgnat.a(a-except.o)
                                  0x8 (size before relaxing)
 .ARM.exidx.text.ada__exceptions__raise_with_location_and_msg
                0x08009b9c        0x8 C:\gnat\2017\arm-eabi\lib\gnat\ravenscar-full-stm32f4\adalib\\libgnat.a(a-except.o)
 .ARM.exidx.text.__gnat_raise_with_msg
                0x08009ba4        0x8 C:\gnat\2017\arm-eabi\lib\gnat\ravenscar-full-stm32f4\adalib\\libgnat.a(a-except.o)
 .ARM.exidx.text.__gnat_rcheck_CE_Access_Check
                0x08009bac        0x8 C:\gnat\2017\arm-eabi\lib\gnat\ravenscar-full-stm32f4\adalib\\libgnat.a(a-except.o)
 .ARM.exidx.text.__gnat_rcheck_CE_Null_Access_Parameter
                0x08009bb4        0x8 C:\gnat\2017\arm-eabi\lib\gnat\ravenscar-full-stm32f4\adalib\\libgnat.a(a-except.o)
 .ARM.exidx.text.__gnat_rcheck_CE_Discriminant_Check
                0x08009bbc        0x8 C:\gnat\2017\arm-eabi\lib\gnat\ravenscar-full-stm32f4\adalib\\libgnat.a(a-except.o)
 .ARM.exidx.text.__gnat_rcheck_CE_Divide_By_Zero
                0x08009bc4        0x8 C:\gnat\2017\arm-eabi\lib\gnat\ravenscar-full-stm32f4\adalib\\libgnat.a(a-except.o)
 .ARM.exidx.text.__gnat_rcheck_CE_Explicit_Raise
                0x08009bcc        0x8 C:\gnat\2017\arm-eabi\lib\gnat\ravenscar-full-stm32f4\adalib\\libgnat.a(a-except.o)
 .ARM.exidx.text.__gnat_rcheck_CE_Index_Check
                0x08009bd4        0x8 C:\gnat\2017\arm-eabi\lib\gnat\ravenscar-full-stm32f4\adalib\\libgnat.a(a-except.o)
 .ARM.exidx.text.__gnat_rcheck_CE_Invalid_Data
                0x08009bdc        0x8 C:\gnat\2017\arm-eabi\lib\gnat\ravenscar-full-stm32f4\adalib\\libgnat.a(a-except.o)
 .ARM.exidx.text.__gnat_rcheck_CE_Length_Check
                0x08009be4        0x8 C:\gnat\2017\arm-eabi\lib\gnat\ravenscar-full-stm32f4\adalib\\libgnat.a(a-except.o)
 .ARM.exidx.text.__gnat_rcheck_CE_Null_Exception_Id
                0x08009bec        0x8 C:\gnat\2017\arm-eabi\lib\gnat\ravenscar-full-stm32f4\adalib\\libgnat.a(a-except.o)
 .ARM.exidx.text.__gnat_rcheck_CE_Null_Not_Allowed
                0x08009bf4        0x8 C:\gnat\2017\arm-eabi\lib\gnat\ravenscar-full-stm32f4\adalib\\libgnat.a(a-except.o)
 .ARM.exidx.text.__gnat_rcheck_CE_Overflow_Check
                0x08009bfc        0x8 C:\gnat\2017\arm-eabi\lib\gnat\ravenscar-full-stm32f4\adalib\\libgnat.a(a-except.o)
 .ARM.exidx.text.__gnat_rcheck_CE_Partition_Check
                0x08009c04        0x8 C:\gnat\2017\arm-eabi\lib\gnat\ravenscar-full-stm32f4\adalib\\libgnat.a(a-except.o)
 .ARM.exidx.text.__gnat_rcheck_CE_Range_Check
                0x08009c0c        0x8 C:\gnat\2017\arm-eabi\lib\gnat\ravenscar-full-stm32f4\adalib\\libgnat.a(a-except.o)
 .ARM.exidx.text.__gnat_rcheck_CE_Tag_Check
                0x08009c14        0x8 C:\gnat\2017\arm-eabi\lib\gnat\ravenscar-full-stm32f4\adalib\\libgnat.a(a-except.o)
 .ARM.exidx.text.__gnat_rcheck_PE_Access_Before_Elaboration
                0x08009c1c        0x8 C:\gnat\2017\arm-eabi\lib\gnat\ravenscar-full-stm32f4\adalib\\libgnat.a(a-except.o)
 .ARM.exidx.text.__gnat_rcheck_PE_Accessibility_Check
                0x08009c24        0x8 C:\gnat\2017\arm-eabi\lib\gnat\ravenscar-full-stm32f4\adalib\\libgnat.a(a-except.o)
 .ARM.exidx.text.__gnat_rcheck_PE_Address_Of_Intrinsic
                0x08009c2c        0x8 C:\gnat\2017\arm-eabi\lib\gnat\ravenscar-full-stm32f4\adalib\\libgnat.a(a-except.o)
 .ARM.exidx.text.__gnat_rcheck_PE_Aliased_Parameters
                0x08009c34        0x8 C:\gnat\2017\arm-eabi\lib\gnat\ravenscar-full-stm32f4\adalib\\libgnat.a(a-except.o)
 .ARM.exidx.text.__gnat_rcheck_PE_All_Guards_Closed
                0x08009c3c        0x8 C:\gnat\2017\arm-eabi\lib\gnat\ravenscar-full-stm32f4\adalib\\libgnat.a(a-except.o)
 .ARM.exidx.text.__gnat_rcheck_PE_Bad_Predicated_Generic_Type
                0x08009c44        0x8 C:\gnat\2017\arm-eabi\lib\gnat\ravenscar-full-stm32f4\adalib\\libgnat.a(a-except.o)
 .ARM.exidx.text.__gnat_rcheck_PE_Current_Task_In_Entry_Body
                0x08009c4c        0x8 C:\gnat\2017\arm-eabi\lib\gnat\ravenscar-full-stm32f4\adalib\\libgnat.a(a-except.o)
 .ARM.exidx.text.__gnat_rcheck_PE_Duplicated_Entry_Address
                0x08009c54        0x8 C:\gnat\2017\arm-eabi\lib\gnat\ravenscar-full-stm32f4\adalib\\libgnat.a(a-except.o)
 .ARM.exidx.text.__gnat_rcheck_PE_Explicit_Raise
                0x08009c5c        0x8 C:\gnat\2017\arm-eabi\lib\gnat\ravenscar-full-stm32f4\adalib\\libgnat.a(a-except.o)
 .ARM.exidx.text.__gnat_rcheck_PE_Implicit_Return
                0x08009c64        0x8 C:\gnat\2017\arm-eabi\lib\gnat\ravenscar-full-stm32f4\adalib\\libgnat.a(a-except.o)
 .ARM.exidx.text.__gnat_rcheck_PE_Misaligned_Address_Value
                0x08009c6c        0x8 C:\gnat\2017\arm-eabi\lib\gnat\ravenscar-full-stm32f4\adalib\\libgnat.a(a-except.o)
 .ARM.exidx.text.__gnat_rcheck_PE_Missing_Return
                0x08009c74        0x8 C:\gnat\2017\arm-eabi\lib\gnat\ravenscar-full-stm32f4\adalib\\libgnat.a(a-except.o)
 .ARM.exidx.text.__gnat_rcheck_PE_Non_Transportable_Actual
                0x08009c7c        0x8 C:\gnat\2017\arm-eabi\lib\gnat\ravenscar-full-stm32f4\adalib\\libgnat.a(a-except.o)
 .ARM.exidx.text.__gnat_rcheck_PE_Overlaid_Controlled_Object
                0x08009c84        0x8 C:\gnat\2017\arm-eabi\lib\gnat\ravenscar-full-stm32f4\adalib\\libgnat.a(a-except.o)
 .ARM.exidx.text.__gnat_rcheck_PE_Potentially_Blocking_Operation
                0x08009c8c        0x8 C:\gnat\2017\arm-eabi\lib\gnat\ravenscar-full-stm32f4\adalib\\libgnat.a(a-except.o)
 .ARM.exidx.text.__gnat_rcheck_PE_Stream_Operation_Not_Allowed
                0x08009c94        0x8 C:\gnat\2017\arm-eabi\lib\gnat\ravenscar-full-stm32f4\adalib\\libgnat.a(a-except.o)
 .ARM.exidx.text.__gnat_rcheck_PE_Stubbed_Subprogram_Called
                0x08009c9c        0x8 C:\gnat\2017\arm-eabi\lib\gnat\ravenscar-full-stm32f4\adalib\\libgnat.a(a-except.o)
 .ARM.exidx.text.__gnat_rcheck_PE_Unchecked_Union_Restriction
                0x08009ca4        0x8 C:\gnat\2017\arm-eabi\lib\gnat\ravenscar-full-stm32f4\adalib\\libgnat.a(a-except.o)
 .ARM.exidx.text.__gnat_rcheck_SE_Empty_Storage_Pool
                0x08009cac        0x8 C:\gnat\2017\arm-eabi\lib\gnat\ravenscar-full-stm32f4\adalib\\libgnat.a(a-except.o)
 .ARM.exidx.text.__gnat_rcheck_SE_Explicit_Raise
                0x08009cb4        0x8 C:\gnat\2017\arm-eabi\lib\gnat\ravenscar-full-stm32f4\adalib\\libgnat.a(a-except.o)
 .ARM.exidx.text.__gnat_rcheck_SE_Infinite_Recursion
                0x08009cbc        0x8 C:\gnat\2017\arm-eabi\lib\gnat\ravenscar-full-stm32f4\adalib\\libgnat.a(a-except.o)
 .ARM.exidx.text.__gnat_rcheck_SE_Object_Too_Large
                0x08009cc4        0x8 C:\gnat\2017\arm-eabi\lib\gnat\ravenscar-full-stm32f4\adalib\\libgnat.a(a-except.o)
 .ARM.exidx.text.__gnat_rcheck_CE_Access_Check_ext
                0x08009ccc        0x8 C:\gnat\2017\arm-eabi\lib\gnat\ravenscar-full-stm32f4\adalib\\libgnat.a(a-except.o)
 .ARM.exidx.text.ada__exceptions__rcheck_ce_index_check_ext___finalizer.7070
                0x08009cd4        0x8 C:\gnat\2017\arm-eabi\lib\gnat\ravenscar-full-stm32f4\adalib\\libgnat.a(a-except.o)
 .ARM.exidx.text.__gnat_rcheck_CE_Index_Check_ext
                0x08009cdc        0x8 C:\gnat\2017\arm-eabi\lib\gnat\ravenscar-full-stm32f4\adalib\\libgnat.a(a-except.o)
 .ARM.exidx.text.ada__exceptions__rcheck_ce_invalid_data_ext___finalizer.7145
                0x08009ce4        0x8 C:\gnat\2017\arm-eabi\lib\gnat\ravenscar-full-stm32f4\adalib\\libgnat.a(a-except.o)
 .ARM.exidx.text.__gnat_rcheck_CE_Invalid_Data_ext
                0x08009cec        0x8 C:\gnat\2017\arm-eabi\lib\gnat\ravenscar-full-stm32f4\adalib\\libgnat.a(a-except.o)
 .ARM.exidx.text.ada__exceptions__rcheck_ce_range_check_ext___finalizer.7220
                0x08009cf4        0x8 C:\gnat\2017\arm-eabi\lib\gnat\ravenscar-full-stm32f4\adalib\\libgnat.a(a-except.o)
 .ARM.exidx.text.__gnat_rcheck_CE_Range_Check_ext
                0x08009cfc        0x8 C:\gnat\2017\arm-eabi\lib\gnat\ravenscar-full-stm32f4\adalib\\libgnat.a(a-except.o)
 .ARM.exidx.text.__gnat_rcheck_PE_Finalize_Raised_Exception
                0x08009d04        0x8 C:\gnat\2017\arm-eabi\lib\gnat\ravenscar-full-stm32f4\adalib\\libgnat.a(a-except.o)
 .ARM.exidx.text.__gnat_reraise
                0x08009d0c        0x8 C:\gnat\2017\arm-eabi\lib\gnat\ravenscar-full-stm32f4\adalib\\libgnat.a(a-except.o)
 .ARM.exidx.text.__gnat_reraise_library_exception_if_any
                0x08009d14        0x8 C:\gnat\2017\arm-eabi\lib\gnat\ravenscar-full-stm32f4\adalib\\libgnat.a(a-except.o)
 .ARM.exidx.text.ada__exceptions__reraise_occurrence
                0x08009d1c        0x8 C:\gnat\2017\arm-eabi\lib\gnat\ravenscar-full-stm32f4\adalib\\libgnat.a(a-except.o)
 .ARM.exidx.text.ada__exceptions__reraise_occurrence_always
                0x08009d24        0x8 C:\gnat\2017\arm-eabi\lib\gnat\ravenscar-full-stm32f4\adalib\\libgnat.a(a-except.o)
 .ARM.exidx.text.ada__exceptions__reraise_occurrence_no_defer
                0x08009d2c        0x8 C:\gnat\2017\arm-eabi\lib\gnat\ravenscar-full-stm32f4\adalib\\libgnat.a(a-except.o)
 .ARM.exidx.text.ada__exceptions__save_occurrence
                0x08009d34        0x8 C:\gnat\2017\arm-eabi\lib\gnat\ravenscar-full-stm32f4\adalib\\libgnat.a(a-except.o)
 .ARM.exidx.text.ada__exceptions__save_occurrence__2
                0x08009d3c        0x8 C:\gnat\2017\arm-eabi\lib\gnat\ravenscar-full-stm32f4\adalib\\libgnat.a(a-except.o)
 .ARM.exidx.text.ada__exceptions__string_to_eid
                0x08009d44        0x8 C:\gnat\2017\arm-eabi\lib\gnat\ravenscar-full-stm32f4\adalib\\libgnat.a(a-except.o)
 .ARM.exidx.text.ada__exceptions__string_to_eo
                0x08009d4c        0x8 C:\gnat\2017\arm-eabi\lib\gnat\ravenscar-full-stm32f4\adalib\\libgnat.a(a-except.o)
 .ARM.exidx.text.__gnat_to_stderr_char
                0x08009d54        0x8 C:\gnat\2017\arm-eabi\lib\gnat\ravenscar-full-stm32f4\adalib\\libgnat.a(a-except.o)
 .ARM.exidx.text.__gnat_to_stderr
                0x08009d5c        0x8 C:\gnat\2017\arm-eabi\lib\gnat\ravenscar-full-stm32f4\adalib\\libgnat.a(a-except.o)
 .ARM.exidx.text.__gnat_transfer_occurrence
                0x08009d64        0x8 C:\gnat\2017\arm-eabi\lib\gnat\ravenscar-full-stm32f4\adalib\\libgnat.a(a-except.o)
 .ARM.exidx.text.ada__exceptions__triggered_by_abort
                0x08009d6c        0x8 C:\gnat\2017\arm-eabi\lib\gnat\ravenscar-full-stm32f4\adalib\\libgnat.a(a-except.o)
 .ARM.exidx.text.ada__exceptions__wide_exception_name
                0x08009d74        0x8 C:\gnat\2017\arm-eabi\lib\gnat\ravenscar-full-stm32f4\adalib\\libgnat.a(a-except.o)
 .ARM.exidx.text.ada__exceptions__wide_exception_name__2
                0x08009d7c        0x0 C:\gnat\2017\arm-eabi\lib\gnat\ravenscar-full-stm32f4\adalib\\libgnat.a(a-except.o)
                                  0x8 (size before relaxing)
 .ARM.exidx.text.ada__exceptions__wide_wide_exception_name
                0x08009d7c        0x0 C:\gnat\2017\arm-eabi\lib\gnat\ravenscar-full-stm32f4\adalib\\libgnat.a(a-except.o)
                                  0x8 (size before relaxing)
 .ARM.exidx.text.ada__exceptions__wide_wide_exception_name__2
                0x08009d7c        0x0 C:\gnat\2017\arm-eabi\lib\gnat\ravenscar-full-stm32f4\adalib\\libgnat.a(a-except.o)
                                  0x8 (size before relaxing)
 .ARM.exidx.text.ada__exceptions__code_address_for_zzz
                0x08009d7c        0x8 C:\gnat\2017\arm-eabi\lib\gnat\ravenscar-full-stm32f4\adalib\\libgnat.a(a-except.o)
 .ARM.exidx.text.__gnat_last_chance_handler
                0x08009d84        0x8 C:\gnat\2017\arm-eabi\lib\gnat\ravenscar-full-stm32f4\adalib\\libgnat.a(a-elchha.o)
 .ARM.exidx.text.memset
                0x08009d8c        0x8 C:\gnat\2017\arm-eabi\lib\gnat\ravenscar-full-stm32f4\adalib\\libgnat.a(s-memset.o)
 .ARM.exidx.text.memmove
                0x08009d94        0x8 C:\gnat\2017\arm-eabi\lib\gnat\ravenscar-full-stm32f4\adalib\\libgnat.a(s-memmov.o)
 .ARM.exidx.text.memcpy
                0x08009d9c        0x8 C:\gnat\2017\arm-eabi\lib\gnat\ravenscar-full-stm32f4\adalib\\libgnat.a(s-memcop.o)
 .ARM.exidx.text.memcmp
                0x08009da4        0x8 C:\gnat\2017\arm-eabi\lib\gnat\ravenscar-full-stm32f4\adalib\\libgnat.a(s-memcom.o)
 .ARM.exidx.text.system__secondary_stack__memoryIP
                0x08009dac        0x8 C:\gnat\2017\arm-eabi\lib\gnat\ravenscar-full-stm32f4\adalib\\libgnat.a(s-secsta.o)
 .ARM.exidx.text.system__secondary_stack__ss_allocate
                0x08009db4        0x8 C:\gnat\2017\arm-eabi\lib\gnat\ravenscar-full-stm32f4\adalib\\libgnat.a(s-secsta.o)
 .ARM.exidx.text.system__secondary_stack__ss_init
                0x08009dbc        0x8 C:\gnat\2017\arm-eabi\lib\gnat\ravenscar-full-stm32f4\adalib\\libgnat.a(s-secsta.o)
 .ARM.exidx.text.system__secondary_stack__ss_mark
                0x08009dc4        0x8 C:\gnat\2017\arm-eabi\lib\gnat\ravenscar-full-stm32f4\adalib\\libgnat.a(s-secsta.o)
 .ARM.exidx.text.system__secondary_stack__ss_release
                0x08009dcc        0x8 C:\gnat\2017\arm-eabi\lib\gnat\ravenscar-full-stm32f4\adalib\\libgnat.a(s-secsta.o)
 .ARM.exidx.text.system__img_int__set_digits
                0x08009dd4        0x8 C:\gnat\2017\arm-eabi\lib\gnat\ravenscar-full-stm32f4\adalib\\libgnat.a(s-imgint.o)
 .ARM.exidx.text.system__img_int__set_image_integer
                0x08009ddc        0x0 C:\gnat\2017\arm-eabi\lib\gnat\ravenscar-full-stm32f4\adalib\\libgnat.a(s-imgint.o)
                                  0x8 (size before relaxing)
 .ARM.exidx.text.system__img_int__image_integer
                0x08009ddc        0x0 C:\gnat\2017\arm-eabi\lib\gnat\ravenscar-full-stm32f4\adalib\\libgnat.a(s-imgint.o)
                                  0x8 (size before relaxing)
 .ARM.exidx.text.read_encoded_value_with_base
                0x08009ddc        0x0 C:\gnat\2017\arm-eabi\lib\gnat\ravenscar-full-stm32f4\adalib\\libgnat.a(raise-gcc.o)
                                  0x8 (size before relaxing)
 .ARM.exidx.text.base_of_encoded_value
                0x08009ddc        0x0 C:\gnat\2017\arm-eabi\lib\gnat\ravenscar-full-stm32f4\adalib\\libgnat.a(raise-gcc.o)
                                  0x8 (size before relaxing)
 .ARM.exidx.text.__gnat_personality_v0
                0x08009ddc        0x8 C:\gnat\2017\arm-eabi\lib\gnat\ravenscar-full-stm32f4\adalib\\libgnat.a(raise-gcc.o)
 .ARM.exidx.text.__gnat_cleanupunwind_handler
                0x08009de4        0x8 C:\gnat\2017\arm-eabi\lib\gnat\ravenscar-full-stm32f4\adalib\\libgnat.a(raise-gcc.o)
 .ARM.exidx.text.__gnat_Unwind_RaiseException
                0x08009dec        0x8 C:\gnat\2017\arm-eabi\lib\gnat\ravenscar-full-stm32f4\adalib\\libgnat.a(raise-gcc.o)
 .ARM.exidx.text.__gnat_Unwind_ForcedUnwind
                0x08009df4        0x0 C:\gnat\2017\arm-eabi\lib\gnat\ravenscar-full-stm32f4\adalib\\libgnat.a(raise-gcc.o)
                                  0x8 (size before relaxing)
 .ARM.exidx.text.system__bb__interrupts__Tinterrupt_stacksBIP
                0x08009df4        0x0 C:\gnat\2017\arm-eabi\lib\gnat\ravenscar-full-stm32f4\adalib\\libgnat.a(s-bbinte.o)
                                  0x8 (size before relaxing)
 .ARM.exidx.text.system__bb__interrupts__Tinterrupt_stack_tableBIP
                0x08009df4        0x0 C:\gnat\2017\arm-eabi\lib\gnat\ravenscar-full-stm32f4\adalib\\libgnat.a(s-bbinte.o)
                                  0x8 (size before relaxing)
 .ARM.exidx.text.system__bb__interrupts__attach_handler
                0x08009df4        0x8 C:\gnat\2017\arm-eabi\lib\gnat\ravenscar-full-stm32f4\adalib\\libgnat.a(s-bbinte.o)
 .ARM.exidx.text.system__bb__interrupts__current_interrupt
                0x08009dfc        0x8 C:\gnat\2017\arm-eabi\lib\gnat\ravenscar-full-stm32f4\adalib\\libgnat.a(s-bbinte.o)
 .ARM.exidx.text.system__bb__interrupts__interrupt_wrapper
                0x08009e04        0x8 C:\gnat\2017\arm-eabi\lib\gnat\ravenscar-full-stm32f4\adalib\\libgnat.a(s-bbinte.o)
 .ARM.exidx.text.system__bb__interrupts__within_interrupt_stack
                0x08009e0c        0x8 C:\gnat\2017\arm-eabi\lib\gnat\ravenscar-full-stm32f4\adalib\\libgnat.a(s-bbinte.o)
 .ARM.exidx.text.system__bb__interrupts__initialize_interrupts
                0x08009e14        0x8 C:\gnat\2017\arm-eabi\lib\gnat\ravenscar-full-stm32f4\adalib\\libgnat.a(s-bbinte.o)
 .ARM.exidx.text.system__bb__cpu_primitives__gnat_error_handler
                0x08009e1c        0x8 C:\gnat\2017\arm-eabi\lib\gnat\ravenscar-full-stm32f4\adalib\\libgnat.a(s-bbcppr.o)
 .ARM.exidx.text.system__bb__cpu_primitives__Tcontext_bufferBIP
                0x08009e24        0x8 C:\gnat\2017\arm-eabi\lib\gnat\ravenscar-full-stm32f4\adalib\\libgnat.a(s-bbcppr.o)
 .ARM.exidx.text.system__bb__cpu_primitives__hardware_contextIP
                0x08009e2c        0x0 C:\gnat\2017\arm-eabi\lib\gnat\ravenscar-full-stm32f4\adalib\\libgnat.a(s-bbcppr.o)
                                  0x8 (size before relaxing)
 .ARM.exidx.text.primask
                0x08009e2c        0x8 C:\gnat\2017\arm-eabi\lib\gnat\ravenscar-full-stm32f4\adalib\\libgnat.a(s-bbcppr.o)
 .ARM.exidx.text.system__bb__cpu_primitives__initialize_cpu
                0x08009e34        0x8 C:\gnat\2017\arm-eabi\lib\gnat\ravenscar-full-stm32f4\adalib\\libgnat.a(s-bbcppr.o)
 .ARM.exidx.text.system__bb__cpu_primitives__context_switch
                0x08009e3c        0x8 C:\gnat\2017\arm-eabi\lib\gnat\ravenscar-full-stm32f4\adalib\\libgnat.a(s-bbcppr.o)
 .ARM.exidx.text.system__bb__cpu_primitives__get_context
                0x08009e44        0x8 C:\gnat\2017\arm-eabi\lib\gnat\ravenscar-full-stm32f4\adalib\\libgnat.a(s-bbcppr.o)
 .ARM.exidx.text.__gnat_irq_trap
                0x08009e4c        0x8 C:\gnat\2017\arm-eabi\lib\gnat\ravenscar-full-stm32f4\adalib\\libgnat.a(s-bbcppr.o)
 .ARM.exidx.text.__gnat_pend_sv_trap
                0x08009e54        0x8 C:\gnat\2017\arm-eabi\lib\gnat\ravenscar-full-stm32f4\adalib\\libgnat.a(s-bbcppr.o)
 .ARM.exidx.text.__gnat_sv_call_trap
                0x08009e5c        0x8 C:\gnat\2017\arm-eabi\lib\gnat\ravenscar-full-stm32f4\adalib\\libgnat.a(s-bbcppr.o)
 .ARM.exidx.text.system__bb__cpu_primitives__set_context
                0x08009e64        0x8 C:\gnat\2017\arm-eabi\lib\gnat\ravenscar-full-stm32f4\adalib\\libgnat.a(s-bbcppr.o)
 .ARM.exidx.text.__gnat_sys_tick_trap
                0x08009e6c        0x8 C:\gnat\2017\arm-eabi\lib\gnat\ravenscar-full-stm32f4\adalib\\libgnat.a(s-bbcppr.o)
 .ARM.exidx.text.system__bb__cpu_primitives__initialize_context
                0x08009e74        0x8 C:\gnat\2017\arm-eabi\lib\gnat\ravenscar-full-stm32f4\adalib\\libgnat.a(s-bbcppr.o)
 .ARM.exidx.text.system__bb__cpu_primitives__install_error_handlers
                0x08009e7c        0x8 C:\gnat\2017\arm-eabi\lib\gnat\ravenscar-full-stm32f4\adalib\\libgnat.a(s-bbcppr.o)
 .ARM.exidx.text.system__bb__cpu_primitives__install_trap_handler
                0x08009e84        0x0 C:\gnat\2017\arm-eabi\lib\gnat\ravenscar-full-stm32f4\adalib\\libgnat.a(s-bbcppr.o)
                                  0x8 (size before relaxing)
 .ARM.exidx.text.system__bb__cpu_primitives__disable_interrupts
                0x08009e84        0x8 C:\gnat\2017\arm-eabi\lib\gnat\ravenscar-full-stm32f4\adalib\\libgnat.a(s-bbcppr.o)
 .ARM.exidx.text.system__bb__cpu_primitives__enable_interrupts
                0x08009e8c        0x0 C:\gnat\2017\arm-eabi\lib\gnat\ravenscar-full-stm32f4\adalib\\libgnat.a(s-bbcppr.o)
                                  0x8 (size before relaxing)
 .ARM.exidx.text.system__bb__board_support__timer_interrupt_handler
                0x08009e8c        0x0 C:\gnat\2017\arm-eabi\lib\gnat\ravenscar-full-stm32f4\adalib\\libgnat.a(s-bbbosu.o)
                                  0x8 (size before relaxing)
 .ARM.exidx.text.system__bb__board_support__interrupt_handler
                0x08009e8c        0x0 C:\gnat\2017\arm-eabi\lib\gnat\ravenscar-full-stm32f4\adalib\\libgnat.a(s-bbbosu.o)
                                  0x8 (size before relaxing)
 .ARM.exidx.text.system__bb__board_support__enable_interrupt_request.part.0
                0x08009e8c        0x0 C:\gnat\2017\arm-eabi\lib\gnat\ravenscar-full-stm32f4\adalib\\libgnat.a(s-bbbosu.o)
                                  0x8 (size before relaxing)
 .ARM.exidx.text.system__bb__board_support__time__max_timer_interval
                0x08009e8c        0x8 C:\gnat\2017\arm-eabi\lib\gnat\ravenscar-full-stm32f4\adalib\\libgnat.a(s-bbbosu.o)
 .ARM.exidx.text.system__bb__board_support__time__read_clock
                0x08009e94        0x8 C:\gnat\2017\arm-eabi\lib\gnat\ravenscar-full-stm32f4\adalib\\libgnat.a(s-bbbosu.o)
 .ARM.exidx.text.system__bb__board_support__time__clear_alarm_interrupt
                0x08009e9c        0x0 C:\gnat\2017\arm-eabi\lib\gnat\ravenscar-full-stm32f4\adalib\\libgnat.a(s-bbbosu.o)
                                  0x8 (size before relaxing)
 .ARM.exidx.text.system__bb__board_support__time__set_alarm
                0x08009e9c        0x8 C:\gnat\2017\arm-eabi\lib\gnat\ravenscar-full-stm32f4\adalib\\libgnat.a(s-bbbosu.o)
 .ARM.exidx.text.system__bb__board_support__time__install_alarm_handler
                0x08009ea4        0x8 C:\gnat\2017\arm-eabi\lib\gnat\ravenscar-full-stm32f4\adalib\\libgnat.a(s-bbbosu.o)
 .ARM.exidx.text.system__bb__board_support__multiprocessors__number_of_cpus
                0x08009eac        0x8 C:\gnat\2017\arm-eabi\lib\gnat\ravenscar-full-stm32f4\adalib\\libgnat.a(s-bbbosu.o)
 .ARM.exidx.text.system__bb__board_support__multiprocessors__current_cpu
                0x08009eb4        0x0 C:\gnat\2017\arm-eabi\lib\gnat\ravenscar-full-stm32f4\adalib\\libgnat.a(s-bbbosu.o)
                                  0x8 (size before relaxing)
 .ARM.exidx.text.system__bb__board_support__multiprocessors__poke_cpu
                0x08009eb4        0x0 C:\gnat\2017\arm-eabi\lib\gnat\ravenscar-full-stm32f4\adalib\\libgnat.a(s-bbbosu.o)
                                  0x8 (size before relaxing)
 .ARM.exidx.text.system__bb__board_support__multiprocessors__start_all_cpus
                0x08009eb4        0x0 C:\gnat\2017\arm-eabi\lib\gnat\ravenscar-full-stm32f4\adalib\\libgnat.a(s-bbbosu.o)
                                  0x8 (size before relaxing)
 .ARM.exidx.text.system__bb__board_support__interrupts__install_interrupt_handler
                0x08009eb4        0x8 C:\gnat\2017\arm-eabi\lib\gnat\ravenscar-full-stm32f4\adalib\\libgnat.a(s-bbbosu.o)
 .ARM.exidx.text.system__bb__board_support__interrupts__priority_of_interrupt
                0x08009ebc        0x8 C:\gnat\2017\arm-eabi\lib\gnat\ravenscar-full-stm32f4\adalib\\libgnat.a(s-bbbosu.o)
 .ARM.exidx.text.system__bb__board_support__interrupts__power_down
                0x08009ec4        0x0 C:\gnat\2017\arm-eabi\lib\gnat\ravenscar-full-stm32f4\adalib\\libgnat.a(s-bbbosu.o)
                                  0x8 (size before relaxing)
 .ARM.exidx.text.system__bb__board_support__interrupts__set_current_priority
                0x08009ec4        0x0 C:\gnat\2017\arm-eabi\lib\gnat\ravenscar-full-stm32f4\adalib\\libgnat.a(s-bbbosu.o)
                                  0x8 (size before relaxing)
 .ARM.exidx.text.system__bb__board_support__sys_tick_registersIP
                0x08009ec4        0x8 C:\gnat\2017\arm-eabi\lib\gnat\ravenscar-full-stm32f4\adalib\\libgnat.a(s-bbbosu.o)
 .ARM.exidx.text.system__bb__board_support__TipBIP
                0x08009ecc        0x0 C:\gnat\2017\arm-eabi\lib\gnat\ravenscar-full-stm32f4\adalib\\libgnat.a(s-bbbosu.o)
                                  0x8 (size before relaxing)
 .ARM.exidx.text.system__bb__board_support__initialize_board
                0x08009ecc        0x8 C:\gnat\2017\arm-eabi\lib\gnat\ravenscar-full-stm32f4\adalib\\libgnat.a(s-bbbosu.o)
 .ARM.exidx.text.system__bb__board_support__enable_interrupt_request
                0x08009ed4        0x8 C:\gnat\2017\arm-eabi\lib\gnat\ravenscar-full-stm32f4\adalib\\libgnat.a(s-bbbosu.o)
 .ARM.exidx.text.system__bb__board_support__to_pri
                0x08009edc        0x8 C:\gnat\2017\arm-eabi\lib\gnat\ravenscar-full-stm32f4\adalib\\libgnat.a(s-bbbosu.o)
 .ARM.exidx.text.system__bb__board_support__to_priority
                0x08009ee4        0x0 C:\gnat\2017\arm-eabi\lib\gnat\ravenscar-full-stm32f4\adalib\\libgnat.a(s-bbbosu.o)
                                  0x8 (size before relaxing)
 .ARM.exidx.text.system__bb__mcu_parameters__is_pwr_stabilized
                0x08009ee4        0x8 C:\gnat\2017\arm-eabi\lib\gnat\ravenscar-full-stm32f4\adalib\\libgnat.a(s-bbmcpa.o)
 .ARM.exidx.text.system__bb__mcu_parameters__pwr_initialize
                0x08009eec        0x0 C:\gnat\2017\arm-eabi\lib\gnat\ravenscar-full-stm32f4\adalib\\libgnat.a(s-bbmcpa.o)
                                  0x8 (size before relaxing)
 .ARM.exidx.text.system__bb__mcu_parameters__pwr_overdrive_enable
                0x08009eec        0x8 C:\gnat\2017\arm-eabi\lib\gnat\ravenscar-full-stm32f4\adalib\\libgnat.a(s-bbmcpa.o)
 .ARM.exidx.text.system__bb__time__composite_execution_timeIP
                0x08009ef4        0x0 C:\gnat\2017\arm-eabi\lib\gnat\ravenscar-full-stm32f4\adalib\\libgnat.a(s-bbtime.o)
                                  0x8 (size before relaxing)
 .ARM.exidx.text.system__bb__time__composite_timeIP
                0x08009ef4        0x8 C:\gnat\2017\arm-eabi\lib\gnat\ravenscar-full-stm32f4\adalib\\libgnat.a(s-bbtime.o)
 .ARM.exidx.text.system__bb__time__clock
                0x08009efc        0x8 C:\gnat\2017\arm-eabi\lib\gnat\ravenscar-full-stm32f4\adalib\\libgnat.a(s-bbtime.o)
 .ARM.exidx.text.system__bb__time__epoch
                0x08009f04        0x8 C:\gnat\2017\arm-eabi\lib\gnat\ravenscar-full-stm32f4\adalib\\libgnat.a(s-bbtime.o)
 .ARM.exidx.text.system__bb__time__get_next_timeout
                0x08009f0c        0x8 C:\gnat\2017\arm-eabi\lib\gnat\ravenscar-full-stm32f4\adalib\\libgnat.a(s-bbtime.o)
 .ARM.exidx.text.system__bb__time__initialize_timers
                0x08009f14        0x8 C:\gnat\2017\arm-eabi\lib\gnat\ravenscar-full-stm32f4\adalib\\libgnat.a(s-bbtime.o)
 .ARM.exidx.text.system__bb__time__update_alarm
                0x08009f1c        0x8 C:\gnat\2017\arm-eabi\lib\gnat\ravenscar-full-stm32f4\adalib\\libgnat.a(s-bbtime.o)
 .ARM.exidx.text.system__bb__time__delay_until
                0x08009f24        0x0 C:\gnat\2017\arm-eabi\lib\gnat\ravenscar-full-stm32f4\adalib\\libgnat.a(s-bbtime.o)
                                  0x8 (size before relaxing)
 .ARM.exidx.text.system__bb__time__alarm_handler
                0x08009f24        0x8 C:\gnat\2017\arm-eabi\lib\gnat\ravenscar-full-stm32f4\adalib\\libgnat.a(s-bbtime.o)
 .ARM.exidx.text.system__bb__time__Oconcat
                0x08009f2c        0x8 C:\gnat\2017\arm-eabi\lib\gnat\ravenscar-full-stm32f4\adalib\\libgnat.a(s-bbtime.o)
 .ARM.exidx.text.system__traceback__backtrace_callback
                0x08009f34        0x8 C:\gnat\2017\arm-eabi\lib\gnat\ravenscar-full-stm32f4\adalib\\libgnat.a(s-traceb.o)
 .ARM.exidx.text.system__traceback__unwind_context_typeIP
                0x08009f3c        0x8 C:\gnat\2017\arm-eabi\lib\gnat\ravenscar-full-stm32f4\adalib\\libgnat.a(s-traceb.o)
 .ARM.exidx.text.system__traceback__callback_params_typeIP
                0x08009f44        0x0 C:\gnat\2017\arm-eabi\lib\gnat\ravenscar-full-stm32f4\adalib\\libgnat.a(s-traceb.o)
                                  0x8 (size before relaxing)
 .ARM.exidx.text.system__traceback__call_chain
                0x08009f44        0x8 C:\gnat\2017\arm-eabi\lib\gnat\ravenscar-full-stm32f4\adalib\\libgnat.a(s-traceb.o)
 .ARM.exidx.text.system__exceptions__machine__Texception_classBIP
                0x08009f4c        0x8 C:\gnat\2017\arm-eabi\lib\gnat\ravenscar-full-stm32f4\adalib\\libgnat.a(s-excmac.o)
 .ARM.exidx.text.system__exceptions__machine__uint32_t_arrayIP
                0x08009f54        0x0 C:\gnat\2017\arm-eabi\lib\gnat\ravenscar-full-stm32f4\adalib\\libgnat.a(s-excmac.o)
                                  0x8 (size before relaxing)
 .ARM.exidx.text.system__exceptions__machine__unwinder_cache_typeIP
                0x08009f54        0x0 C:\gnat\2017\arm-eabi\lib\gnat\ravenscar-full-stm32f4\adalib\\libgnat.a(s-excmac.o)
                                  0x8 (size before relaxing)
 .ARM.exidx.text.system__exceptions__machine__barrier_cache_typeIP
                0x08009f54        0x0 C:\gnat\2017\arm-eabi\lib\gnat\ravenscar-full-stm32f4\adalib\\libgnat.a(s-excmac.o)
                                  0x8 (size before relaxing)
 .ARM.exidx.text.system__exceptions__machine__cleanup_cache_typeIP
                0x08009f54        0x0 C:\gnat\2017\arm-eabi\lib\gnat\ravenscar-full-stm32f4\adalib\\libgnat.a(s-excmac.o)
                                  0x8 (size before relaxing)
 .ARM.exidx.text.system__exceptions__machine__pr_cache_typeIP
                0x08009f54        0x0 C:\gnat\2017\arm-eabi\lib\gnat\ravenscar-full-stm32f4\adalib\\libgnat.a(s-excmac.o)
                                  0x8 (size before relaxing)
 .ARM.exidx.text.system__exceptions__machine__unwind_control_blockIP
                0x08009f54        0x0 C:\gnat\2017\arm-eabi\lib\gnat\ravenscar-full-stm32f4\adalib\\libgnat.a(s-excmac.o)
                                  0x8 (size before relaxing)
 .ARM.exidx.text.system__exceptions__machine__gnat_gcc_exceptionIP
                0x08009f54        0x0 C:\gnat\2017\arm-eabi\lib\gnat\ravenscar-full-stm32f4\adalib\\libgnat.a(s-excmac.o)
                                  0x8 (size before relaxing)
 .ARM.exidx.text.system__exceptions__machine__new_occurrence
                0x08009f54        0x8 C:\gnat\2017\arm-eabi\lib\gnat\ravenscar-full-stm32f4\adalib\\libgnat.a(s-excmac.o)
 .ARM.exidx.text.system__wch_stw__get_next_code__in_char.5425
                0x08009f5c        0x8 C:\gnat\2017\arm-eabi\lib\gnat\ravenscar-full-stm32f4\adalib\\libgnat.a(s-wchstw.o)
 .ARM.exidx.text.system__wch_stw__get_next_code__get_utf_32__get_hex.5437
                0x08009f64        0x8 C:\gnat\2017\arm-eabi\lib\gnat\ravenscar-full-stm32f4\adalib\\libgnat.a(s-wchstw.o)
 .ARM.exidx.text.system__wch_stw__get_next_code
                0x08009f6c        0x8 C:\gnat\2017\arm-eabi\lib\gnat\ravenscar-full-stm32f4\adalib\\libgnat.a(s-wchstw.o)
 .ARM.exidx.text.system__wch_stw__string_to_wide_string
                0x08009f74        0x8 C:\gnat\2017\arm-eabi\lib\gnat\ravenscar-full-stm32f4\adalib\\libgnat.a(s-wchstw.o)
 .ARM.exidx.text.system__wch_stw__string_to_wide_wide_string
                0x08009f7c        0x8 C:\gnat\2017\arm-eabi\lib\gnat\ravenscar-full-stm32f4\adalib\\libgnat.a(s-wchstw.o)
 .ARM.exidx.text.system__wch_jis__euc_to_jis
                0x08009f84        0x8 C:\gnat\2017\arm-eabi\lib\gnat\ravenscar-full-stm32f4\adalib\\libgnat.a(s-wchjis.o)
 .ARM.exidx.text.system__wch_jis__jis_to_euc
                0x08009f8c        0x8 C:\gnat\2017\arm-eabi\lib\gnat\ravenscar-full-stm32f4\adalib\\libgnat.a(s-wchjis.o)
 .ARM.exidx.text.system__wch_jis__jis_to_shift_jis
                0x08009f94        0x8 C:\gnat\2017\arm-eabi\lib\gnat\ravenscar-full-stm32f4\adalib\\libgnat.a(s-wchjis.o)
 .ARM.exidx.text.system__wch_jis__shift_jis_to_jis
                0x08009f9c        0x8 C:\gnat\2017\arm-eabi\lib\gnat\ravenscar-full-stm32f4\adalib\\libgnat.a(s-wchjis.o)
 .ARM.exidx.text.system__wch_con__get_wc_encoding_method
                0x08009fa4        0x8 C:\gnat\2017\arm-eabi\lib\gnat\ravenscar-full-stm32f4\adalib\\libgnat.a(s-wchcon.o)
 .ARM.exidx.text.system__wch_con__get_wc_encoding_method__2
                0x08009fac        0x8 C:\gnat\2017\arm-eabi\lib\gnat\ravenscar-full-stm32f4\adalib\\libgnat.a(s-wchcon.o)
 .ARM.exidx.text.system__wch_con__is_start_of_encoding
                0x08009fb4        0x8 C:\gnat\2017\arm-eabi\lib\gnat\ravenscar-full-stm32f4\adalib\\libgnat.a(s-wchcon.o)
 .ARM.exidx.text.system__val_uns__scan_raw_unsigned
                0x08009fbc        0x8 C:\gnat\2017\arm-eabi\lib\gnat\ravenscar-full-stm32f4\adalib\\libgnat.a(s-valuns.o)
 .ARM.exidx.text.system__val_uns__scan_unsigned
                0x08009fc4        0x8 C:\gnat\2017\arm-eabi\lib\gnat\ravenscar-full-stm32f4\adalib\\libgnat.a(s-valuns.o)
 .ARM.exidx.text.system__val_uns__value_unsigned
                0x08009fcc        0x8 C:\gnat\2017\arm-eabi\lib\gnat\ravenscar-full-stm32f4\adalib\\libgnat.a(s-valuns.o)
 .ARM.exidx.text.system__traceback_entries__tracebacks_arrayIP
                0x08009fd4        0x8 C:\gnat\2017\arm-eabi\lib\gnat\ravenscar-full-stm32f4\adalib\\libgnat.a(s-traent.o)
 .ARM.exidx.text.system__traceback_entries__pc_for
                0x08009fdc        0x0 C:\gnat\2017\arm-eabi\lib\gnat\ravenscar-full-stm32f4\adalib\\libgnat.a(s-traent.o)
                                  0x8 (size before relaxing)
 .ARM.exidx.text.system__traceback_entries__tb_entry_for
                0x08009fdc        0x0 C:\gnat\2017\arm-eabi\lib\gnat\ravenscar-full-stm32f4\adalib\\libgnat.a(s-traent.o)
                                  0x8 (size before relaxing)
 .ARM.exidx.text.__gnat_malloc
                0x08009fdc        0x8 C:\gnat\2017\arm-eabi\lib\gnat\ravenscar-full-stm32f4\adalib\\libgnat.a(s-memory.o)
 .ARM.exidx.text.__gnat_free
                0x08009fe4        0x0 C:\gnat\2017\arm-eabi\lib\gnat\ravenscar-full-stm32f4\adalib\\libgnat.a(s-memory.o)
                                  0x8 (size before relaxing)
 .ARM.exidx.text.__gnat_realloc
                0x08009fe4        0x8 C:\gnat\2017\arm-eabi\lib\gnat\ravenscar-full-stm32f4\adalib\\libgnat.a(s-memory.o)
 .ARM.exidx.text.system__io__put__2
                0x08009fec        0x8 C:\gnat\2017\arm-eabi\lib\gnat\ravenscar-full-stm32f4\adalib\\libgnat.a(s-io.o)
 .ARM.exidx.text.system__io__new_line
                0x08009ff4        0x8 C:\gnat\2017\arm-eabi\lib\gnat\ravenscar-full-stm32f4\adalib\\libgnat.a(s-io.o)
 .ARM.exidx.text.system__io__put__3
                0x08009ffc        0x8 C:\gnat\2017\arm-eabi\lib\gnat\ravenscar-full-stm32f4\adalib\\libgnat.a(s-io.o)
 .ARM.exidx.text.system__io__put
                0x0800a004        0x8 C:\gnat\2017\arm-eabi\lib\gnat\ravenscar-full-stm32f4\adalib\\libgnat.a(s-io.o)
 .ARM.exidx.text.put_char_stderr
                0x0800a00c        0x8 C:\gnat\2017\arm-eabi\lib\gnat\ravenscar-full-stm32f4\adalib\\libgnat.a(s-io.o)
 .ARM.exidx.text.system__io__put_line
                0x0800a014        0x8 C:\gnat\2017\arm-eabi\lib\gnat\ravenscar-full-stm32f4\adalib\\libgnat.a(s-io.o)
 .ARM.exidx.text.system__io__standard_output
                0x0800a01c        0x8 C:\gnat\2017\arm-eabi\lib\gnat\ravenscar-full-stm32f4\adalib\\libgnat.a(s-io.o)
 .ARM.exidx.text.system__io__standard_error
                0x0800a024        0x0 C:\gnat\2017\arm-eabi\lib\gnat\ravenscar-full-stm32f4\adalib\\libgnat.a(s-io.o)
                                  0x8 (size before relaxing)
 .ARM.exidx.text.system__io__set_output
                0x0800a024        0x0 C:\gnat\2017\arm-eabi\lib\gnat\ravenscar-full-stm32f4\adalib\\libgnat.a(s-io.o)
                                  0x8 (size before relaxing)
 .ARM.exidx.text.__gnat_debug_raise_exception
                0x0800a024        0x8 C:\gnat\2017\arm-eabi\lib\gnat\ravenscar-full-stm32f4\adalib\\libgnat.a(s-excdeb.o)
 .ARM.exidx.text.__gnat_unhandled_exception
                0x0800a02c        0x8 C:\gnat\2017\arm-eabi\lib\gnat\ravenscar-full-stm32f4\adalib\\libgnat.a(s-excdeb.o)
 .ARM.exidx.text.__gnat_debug_raise_assert_failure
                0x0800a034        0x8 C:\gnat\2017\arm-eabi\lib\gnat\ravenscar-full-stm32f4\adalib\\libgnat.a(s-excdeb.o)
 .ARM.exidx.text.local_raise
                0x0800a03c        0x8 C:\gnat\2017\arm-eabi\lib\gnat\ravenscar-full-stm32f4\adalib\\libgnat.a(s-excdeb.o)
 .ARM.exidx.text.gnat__debug_utilities__image__2
                0x0800a044        0x8 C:\gnat\2017\arm-eabi\lib\gnat\ravenscar-full-stm32f4\adalib\\libgnat.a(g-debuti.o)
 .ARM.exidx.text.gnat__debug_utilities__image
                0x0800a04c        0x8 C:\gnat\2017\arm-eabi\lib\gnat\ravenscar-full-stm32f4\adalib\\libgnat.a(g-debuti.o)
 .ARM.exidx.text.gnat__debug_utilities__image_c
                0x0800a054        0x8 C:\gnat\2017\arm-eabi\lib\gnat\ravenscar-full-stm32f4\adalib\\libgnat.a(g-debuti.o)
 .ARM.exidx.text.gnat__debug_utilities__value
                0x0800a05c        0x8 C:\gnat\2017\arm-eabi\lib\gnat\ravenscar-full-stm32f4\adalib\\libgnat.a(g-debuti.o)
 .ARM.exidx.text.system__text_io__initialize
                0x0800a064        0x8 C:\gnat\2017\arm-eabi\lib\gnat\ravenscar-full-stm32f4\adalib\\libgnat.a(s-textio.o)
 .ARM.exidx.text.system__text_io__is_tx_ready
                0x0800a06c        0x0 C:\gnat\2017\arm-eabi\lib\gnat\ravenscar-full-stm32f4\adalib\\libgnat.a(s-textio.o)
                                  0x8 (size before relaxing)
 .ARM.exidx.text.system__text_io__is_rx_ready
                0x0800a06c        0x0 C:\gnat\2017\arm-eabi\lib\gnat\ravenscar-full-stm32f4\adalib\\libgnat.a(s-textio.o)
                                  0x8 (size before relaxing)
 .ARM.exidx.text.system__text_io__get
                0x0800a06c        0x8 C:\gnat\2017\arm-eabi\lib\gnat\ravenscar-full-stm32f4\adalib\\libgnat.a(s-textio.o)
 .ARM.exidx.text.system__text_io__put
                0x0800a074        0x0 C:\gnat\2017\arm-eabi\lib\gnat\ravenscar-full-stm32f4\adalib\\libgnat.a(s-textio.o)
                                  0x8 (size before relaxing)
 .ARM.exidx.text.system__text_io__use_cr_lf_for_new_line
                0x0800a074        0x8 C:\gnat\2017\arm-eabi\lib\gnat\ravenscar-full-stm32f4\adalib\\libgnat.a(s-textio.o)
 .ARM.exidx.text.system__semihosting__put
                0x0800a07c        0x8 C:\gnat\2017\arm-eabi\lib\gnat\ravenscar-full-stm32f4\adalib\\libgnat.a(s-semiho.o)
 .ARM.exidx.text.system__semihosting__put__2
                0x0800a084        0x8 C:\gnat\2017\arm-eabi\lib\gnat\ravenscar-full-stm32f4\adalib\\libgnat.a(s-semiho.o)
 .ARM.exidx.text.system__semihosting__get
                0x0800a08c        0x8 C:\gnat\2017\arm-eabi\lib\gnat\ravenscar-full-stm32f4\adalib\\libgnat.a(s-semiho.o)
 .ARM.exidx.text.system__val_util__bad_value
                0x0800a094        0x8 C:\gnat\2017\arm-eabi\lib\gnat\ravenscar-full-stm32f4\adalib\\libgnat.a(s-valuti.o)
 .ARM.exidx.text.system__val_util__normalize_string
                0x0800a09c        0x8 C:\gnat\2017\arm-eabi\lib\gnat\ravenscar-full-stm32f4\adalib\\libgnat.a(s-valuti.o)
 .ARM.exidx.text.system__val_util__scan_plus_sign
                0x0800a0a4        0x8 C:\gnat\2017\arm-eabi\lib\gnat\ravenscar-full-stm32f4\adalib\\libgnat.a(s-valuti.o)
 .ARM.exidx.text.system__val_util__scan_sign
                0x0800a0ac        0x0 C:\gnat\2017\arm-eabi\lib\gnat\ravenscar-full-stm32f4\adalib\\libgnat.a(s-valuti.o)
                                  0x8 (size before relaxing)
 .ARM.exidx.text.system__val_util__scan_trailing_blanks
                0x0800a0ac        0x8 C:\gnat\2017\arm-eabi\lib\gnat\ravenscar-full-stm32f4\adalib\\libgnat.a(s-valuti.o)
 .ARM.exidx.text.system__val_util__scan_underscore
                0x0800a0b4        0x8 C:\gnat\2017\arm-eabi\lib\gnat\ravenscar-full-stm32f4\adalib\\libgnat.a(s-valuti.o)
 .ARM.exidx.text.system__val_util__scan_exponent
                0x0800a0bc        0x8 C:\gnat\2017\arm-eabi\lib\gnat\ravenscar-full-stm32f4\adalib\\libgnat.a(s-valuti.o)
 .ARM.exidx.text.system__case_util__to_lower
                0x0800a0c4        0x8 C:\gnat\2017\arm-eabi\lib\gnat\ravenscar-full-stm32f4\adalib\\libgnat.a(s-casuti.o)
 .ARM.exidx.text.system__case_util__to_lower__2
                0x0800a0cc        0x0 C:\gnat\2017\arm-eabi\lib\gnat\ravenscar-full-stm32f4\adalib\\libgnat.a(s-casuti.o)
                                  0x8 (size before relaxing)
 .ARM.exidx.text.system__case_util__to_mixed
                0x0800a0cc        0x0 C:\gnat\2017\arm-eabi\lib\gnat\ravenscar-full-stm32f4\adalib\\libgnat.a(s-casuti.o)
                                  0x8 (size before relaxing)
 .ARM.exidx.text.system__case_util__to_upper
                0x0800a0cc        0x0 C:\gnat\2017\arm-eabi\lib\gnat\ravenscar-full-stm32f4\adalib\\libgnat.a(s-casuti.o)
                                  0x8 (size before relaxing)
 .ARM.exidx.text.system__case_util__to_upper__2
                0x0800a0cc        0x0 C:\gnat\2017\arm-eabi\lib\gnat\ravenscar-full-stm32f4\adalib\\libgnat.a(s-casuti.o)
                                  0x8 (size before relaxing)
 .ARM.exidx     0x0800a0cc       0x78 c:/gnat/2017/bin/../lib/gcc/arm-eabi/6.3.1/armv7em/thumb/fpu/fpv4-sp-d16\libgcc.a(unwind-arm.o)
                                 0xd8 (size before relaxing)
 .ARM.exidx     0x0800a144       0x38 c:/gnat/2017/bin/../lib/gcc/arm-eabi/6.3.1/armv7em/thumb/fpu/fpv4-sp-d16\libgcc.a(pr-support.o)
                                 0x48 (size before relaxing)
                0x0800a17c                PROVIDE (__exidx_end, .)

.rodata         0x0800a17c     0x1a3c
 *(.lit)
 *(.rodata .rodata.* .gnu.linkonce.r*)
 .rodata        0x0800a17c       0x41 b__project_main.o
                0x0800a17c                __gnat_version
                0x0800a1a4                __gnat_ada_main_program_name
 *fill*         0x0800a1bd        0x3 
 .rodata        0x0800a1c0       0x5c C:\Users\simon\OneDrive\Documents\STM32\System Project\obj\constants.o
                0x0800a1c0                constants__phase_keyS
                0x0800a1f0                constants__phase_keyN
                0x0800a1f8                constants__hanger_door_locks_typeS
                0x0800a204                constants__hanger_door_locks_typeN
                0x0800a208                constants__rockets_typeS
                0x0800a218                constants__rockets_typeN
 .rodata        0x0800a21c       0xe2 C:\Users\simon\OneDrive\Documents\STM32\System Project\obj\failure_types.o
                0x0800a21c                failure_types__failure_location_valueS
                0x0800a238                failure_types__failure_location_valueN
                0x0800a240                failure_types__failure_response_valueS
                0x0800a25c                failure_types__failure_response_valueN
                0x0800a264                failure_types__failure_id_indexS
                0x0800a2d4                failure_types__failure_id_indexN
                0x0800a2e0                failure_types__failure_log_attributes
 *fill*         0x0800a2fe        0x2 
 .rodata        0x0800a300       0xe0 C:\Users\simon\OneDrive\Documents\STM32\System Project\obj\registers.o
                0x0800a310                registers__input_registersS
                0x0800a398                registers__input_registersN
                0x0800a3a8                registers__input_registersA
                0x0800a3c4                registers__output_registersS
                0x0800a3d8                registers__output_registersN
                0x0800a3dc                registers__output_registersA
 .rodata        0x0800a3e0      0x1d1 C:\Users\simon\OneDrive\Documents\STM32\System Project\obj\signals.o
                0x0800a3ec                signals__input_signal_typeS
                0x0800a564                signals__input_signal_typeN
                0x0800a598                signals__input_signal_typeA
                0x0800a59c                signals__output_signal_typeS
                0x0800a5ac                signals__output_signal_typeN
                0x0800a5b0                signals__output_signal_typeA
 *fill*         0x0800a5b1        0x3 
 .rodata        0x0800a5b4      0x106 C:\Users\simon\OneDrive\Documents\STM32\System Project\obj\signal_register_database.o
                0x0800a5b4                signal_register_database__input_registers_database
                0x0800a6b0                signal_register_database__output_registers_database
 *fill*         0x0800a6ba        0x2 
 .rodata        0x0800a6bc       0x28 C:\Users\simon\OneDrive\Documents\STM32\System Project\obj\main_system_checks.o
 .rodata        0x0800a6e4        0x1 C:\gnat\2017\arm-eabi\lib\gnat\ravenscar-full-stm32f4\adalib\\libgnat.a(setup_pll.o)
 *fill*         0x0800a6e5        0x3 
 .rodata        0x0800a6e8       0x44 C:\gnat\2017\arm-eabi\lib\gnat\ravenscar-full-stm32f4\adalib\\libgnat.a(s-taskin.o)
 .rodata.system__tasking__call_modesN
                0x0800a72c        0x8 C:\gnat\2017\arm-eabi\lib\gnat\ravenscar-full-stm32f4\adalib\\libgnat.a(s-taskin.o)
                0x0800a72c                system__tasking__call_modesN
 .rodata.system__tasking__call_modesS
                0x0800a734       0x36 C:\gnat\2017\arm-eabi\lib\gnat\ravenscar-full-stm32f4\adalib\\libgnat.a(s-taskin.o)
                0x0800a734                system__tasking__call_modesS
 *fill*         0x0800a76a        0x2 
 .rodata.system__tasking__idle_priority
                0x0800a76c        0x4 C:\gnat\2017\arm-eabi\lib\gnat\ravenscar-full-stm32f4\adalib\\libgnat.a(s-taskin.o)
                0x0800a76c                system__tasking__idle_priority
 .rodata.system__tasking__library_task_level
                0x0800a770        0x4 C:\gnat\2017\arm-eabi\lib\gnat\ravenscar-full-stm32f4\adalib\\libgnat.a(s-taskin.o)
                0x0800a770                system__tasking__library_task_level
 .rodata.system__tasking__null_task
                0x0800a774        0x4 C:\gnat\2017\arm-eabi\lib\gnat\ravenscar-full-stm32f4\adalib\\libgnat.a(s-taskin.o)
                0x0800a774                system__tasking__null_task
 .rodata.system__tasking__task_statesN
                0x0800a778       0x22 C:\gnat\2017\arm-eabi\lib\gnat\ravenscar-full-stm32f4\adalib\\libgnat.a(s-taskin.o)
                0x0800a778                system__tasking__task_statesN
 *fill*         0x0800a79a        0x2 
 .rodata.system__tasking__task_statesS
                0x0800a79c      0x130 C:\gnat\2017\arm-eabi\lib\gnat\ravenscar-full-stm32f4\adalib\\libgnat.a(s-taskin.o)
                0x0800a79c                system__tasking__task_statesS
 .rodata.system__task_primitives__operations__idle_stack_size
                0x0800a8cc        0x4 C:\gnat\2017\arm-eabi\lib\gnat\ravenscar-full-stm32f4\adalib\\libgnat.a(s-taprop.o)
                0x0800a8cc                system__task_primitives__operations__idle_stack_size
 .rodata.system__parameters__c_malloc_linkname
                0x0800a8d0        0xd C:\gnat\2017\arm-eabi\lib\gnat\ravenscar-full-stm32f4\adalib\\libgnat.a(s-parame.o)
                0x0800a8d0                system__parameters__c_malloc_linkname
 *fill*         0x0800a8dd        0x3 
 .rodata.system__parameters__default_stack_size
                0x0800a8e0        0x4 C:\gnat\2017\arm-eabi\lib\gnat\ravenscar-full-stm32f4\adalib\\libgnat.a(s-parame.o)
                0x0800a8e0                system__parameters__default_stack_size
 .rodata.system__parameters__dynamic
                0x0800a8e4        0x4 C:\gnat\2017\arm-eabi\lib\gnat\ravenscar-full-stm32f4\adalib\\libgnat.a(s-parame.o)
                0x0800a8e4                system__parameters__dynamic
 .rodata.system__parameters__garbage_collected
                0x0800a8e8        0x1 C:\gnat\2017\arm-eabi\lib\gnat\ravenscar-full-stm32f4\adalib\\libgnat.a(s-parame.o)
                0x0800a8e8                system__parameters__garbage_collected
 *fill*         0x0800a8e9        0x3 
 .rodata.system__parameters__minimum_stack_size
                0x0800a8ec        0x4 C:\gnat\2017\arm-eabi\lib\gnat\ravenscar-full-stm32f4\adalib\\libgnat.a(s-parame.o)
                0x0800a8ec                system__parameters__minimum_stack_size
 .rodata.system__parameters__no_abort
                0x0800a8f0        0x1 C:\gnat\2017\arm-eabi\lib\gnat\ravenscar-full-stm32f4\adalib\\libgnat.a(s-parame.o)
                0x0800a8f0                system__parameters__no_abort
 .rodata.system__parameters__runtime_traces
                0x0800a8f1        0x1 C:\gnat\2017\arm-eabi\lib\gnat\ravenscar-full-stm32f4\adalib\\libgnat.a(s-parame.o)
                0x0800a8f1                system__parameters__runtime_traces
 .rodata.system__parameters__sec_stack_dynamic
                0x0800a8f2        0x1 C:\gnat\2017\arm-eabi\lib\gnat\ravenscar-full-stm32f4\adalib\\libgnat.a(s-parame.o)
                0x0800a8f2                system__parameters__sec_stack_dynamic
 *fill*         0x0800a8f3        0x1 
 .rodata.system__parameters__sec_stack_percentage
                0x0800a8f4        0x4 C:\gnat\2017\arm-eabi\lib\gnat\ravenscar-full-stm32f4\adalib\\libgnat.a(s-parame.o)
                0x0800a8f4                system__parameters__sec_stack_percentage
 .rodata.system__parameters__single_lock
                0x0800a8f8        0x1 C:\gnat\2017\arm-eabi\lib\gnat\ravenscar-full-stm32f4\adalib\\libgnat.a(s-parame.o)
                0x0800a8f8                system__parameters__single_lock
 .rodata.system__parameters__stack_grows_down
                0x0800a8f9        0x1 C:\gnat\2017\arm-eabi\lib\gnat\ravenscar-full-stm32f4\adalib\\libgnat.a(s-parame.o)
                0x0800a8f9                system__parameters__stack_grows_down
 *fill*         0x0800a8fa        0x2 
 .rodata.system__parameters__unspecified_size
                0x0800a8fc        0x4 C:\gnat\2017\arm-eabi\lib\gnat\ravenscar-full-stm32f4\adalib\\libgnat.a(s-parame.o)
                0x0800a8fc                system__parameters__unspecified_size
 .rodata.system__bb__timing_events__timing_eventB16s
                0x0800a900       0x2c C:\gnat\2017\arm-eabi\lib\gnat\ravenscar-full-stm32f4\adalib\\libgnat.a(s-bbtiev.o)
                0x0800a900                system__bb__timing_events__timing_eventB16s
 .rodata.system__bb__timing_events__timing_eventE12s
                0x0800a92c       0x25 C:\gnat\2017\arm-eabi\lib\gnat\ravenscar-full-stm32f4\adalib\\libgnat.a(s-bbtiev.o)
                0x0800a92c                system__bb__timing_events__timing_eventE12s
 *fill*         0x0800a951        0x3 
 .rodata.system__bb__timing_events__timing_eventP
                0x0800a954        0x4 C:\gnat\2017\arm-eabi\lib\gnat\ravenscar-full-stm32f4\adalib\\libgnat.a(s-bbtiev.o)
                0x0800a954                system__bb__timing_events__timing_eventP
 .rodata.system__bb__timing_events__timing_eventR14s
                0x0800a958        0x4 C:\gnat\2017\arm-eabi\lib\gnat\ravenscar-full-stm32f4\adalib\\libgnat.a(s-bbtiev.o)
                0x0800a958                system__bb__timing_events__timing_eventR14s
 .rodata.system__bb__timing_events__timing_eventR14s___UNC
                0x0800a95c       0x2c C:\gnat\2017\arm-eabi\lib\gnat\ravenscar-full-stm32f4\adalib\\libgnat.a(s-bbtiev.o)
                0x0800a95c                system__bb__timing_events__timing_eventR14s___UNC
 .rodata.system__bb__timing_events__timing_eventT
                0x0800a988       0x24 C:\gnat\2017\arm-eabi\lib\gnat\ravenscar-full-stm32f4\adalib\\libgnat.a(s-bbtiev.o)
                0x0800a988                system__bb__timing_events__timing_eventT
 .rodata.system__bb__timing_events__timing_eventY
                0x0800a9ac        0x4 C:\gnat\2017\arm-eabi\lib\gnat\ravenscar-full-stm32f4\adalib\\libgnat.a(s-bbtiev.o)
                0x0800a9ac                system__bb__timing_events__timing_eventY
 .rodata.system__bb__threads__null_thread_id
                0x0800a9b0        0x4 C:\gnat\2017\arm-eabi\lib\gnat\ravenscar-full-stm32f4\adalib\\libgnat.a(s-bbthre.o)
                0x0800a9b0                system__bb__threads__null_thread_id
 .rodata.system__bb__threads__thread_statesN
                0x0800a9b4        0x4 C:\gnat\2017\arm-eabi\lib\gnat\ravenscar-full-stm32f4\adalib\\libgnat.a(s-bbthre.o)
                0x0800a9b4                system__bb__threads__thread_statesN
 .rodata.system__bb__threads__thread_statesS
                0x0800a9b8       0x18 C:\gnat\2017\arm-eabi\lib\gnat\ravenscar-full-stm32f4\adalib\\libgnat.a(s-bbthre.o)
                0x0800a9b8                system__bb__threads__thread_statesS
 .rodata.system__standard_library__abort_signal_name
                0x0800a9d0        0xe C:\gnat\2017\arm-eabi\lib\gnat\ravenscar-full-stm32f4\adalib\\libgnat.a(s-stalib.o)
                0x0800a9d0                system__standard_library__abort_signal_name
 *fill*         0x0800a9de        0x2 
 .rodata.system__standard_library__constraint_error_name
                0x0800a9e0       0x11 C:\gnat\2017\arm-eabi\lib\gnat\ravenscar-full-stm32f4\adalib\\libgnat.a(s-stalib.o)
                0x0800a9e0                system__standard_library__constraint_error_name
 *fill*         0x0800a9f1        0x3 
 .rodata.system__standard_library__exception_trace_kindN
                0x0800a9f4        0x8 C:\gnat\2017\arm-eabi\lib\gnat\ravenscar-full-stm32f4\adalib\\libgnat.a(s-stalib.o)
                0x0800a9f4                system__standard_library__exception_trace_kindN
 .rodata.system__standard_library__exception_trace_kindS
                0x0800a9fc       0x3e C:\gnat\2017\arm-eabi\lib\gnat\ravenscar-full-stm32f4\adalib\\libgnat.a(s-stalib.o)
                0x0800a9fc                system__standard_library__exception_trace_kindS
 *fill*         0x0800aa3a        0x2 
 .rodata.system__standard_library__numeric_error_name
                0x0800aa3c        0xe C:\gnat\2017\arm-eabi\lib\gnat\ravenscar-full-stm32f4\adalib\\libgnat.a(s-stalib.o)
                0x0800aa3c                system__standard_library__numeric_error_name
 *fill*         0x0800aa4a        0x2 
 .rodata.system__standard_library__program_error_name
                0x0800aa4c        0xe C:\gnat\2017\arm-eabi\lib\gnat\ravenscar-full-stm32f4\adalib\\libgnat.a(s-stalib.o)
                0x0800aa4c                system__standard_library__program_error_name
 *fill*         0x0800aa5a        0x2 
 .rodata.system__standard_library__storage_error_name
                0x0800aa5c        0xe C:\gnat\2017\arm-eabi\lib\gnat\ravenscar-full-stm32f4\adalib\\libgnat.a(s-stalib.o)
                0x0800aa5c                system__standard_library__storage_error_name
 *fill*         0x0800aa6a        0x2 
 .rodata.system__standard_library__tasking_error_name
                0x0800aa6c        0xe C:\gnat\2017\arm-eabi\lib\gnat\ravenscar-full-stm32f4\adalib\\libgnat.a(s-stalib.o)
                0x0800aa6c                system__standard_library__tasking_error_name
 *fill*         0x0800aa7a        0x2 
 .rodata        0x0800aa7c        0x8 C:\gnat\2017\arm-eabi\lib\gnat\ravenscar-full-stm32f4\adalib\\libgnat.a(s-soflin.o)
 .rodata.system__soft_links__abort_defer
                0x0800aa84        0x4 C:\gnat\2017\arm-eabi\lib\gnat\ravenscar-full-stm32f4\adalib\\libgnat.a(s-soflin.o)
                0x0800aa84                system__soft_links__abort_defer
 .rodata.system__soft_links__abort_undefer
                0x0800aa88        0x4 C:\gnat\2017\arm-eabi\lib\gnat\ravenscar-full-stm32f4\adalib\\libgnat.a(s-soflin.o)
                0x0800aa88                system__soft_links__abort_undefer
 .rodata.system__soft_links__get_current_excep
                0x0800aa8c        0x4 C:\gnat\2017\arm-eabi\lib\gnat\ravenscar-full-stm32f4\adalib\\libgnat.a(s-soflin.o)
                0x0800aa8c                system__soft_links__get_current_excep
 .rodata        0x0800aa90      0x11c C:\gnat\2017\arm-eabi\lib\gnat\ravenscar-full-stm32f4\adalib\\libgnat.a(a-tags.o)
 .rodata.ada__tags__R4s
                0x0800abac        0x4 C:\gnat\2017\arm-eabi\lib\gnat\ravenscar-full-stm32f4\adalib\\libgnat.a(a-tags.o)
                0x0800abac                ada__tags__R4s
 .rodata.ada__tags__dt_offset_to_top_offset
                0x0800abb0        0x4 C:\gnat\2017\arm-eabi\lib\gnat\ravenscar-full-stm32f4\adalib\\libgnat.a(a-tags.o)
                0x0800abb0                ada__tags__dt_offset_to_top_offset
 .rodata.ada__tags__dt_offset_to_top_size
                0x0800abb4        0x4 C:\gnat\2017\arm-eabi\lib\gnat\ravenscar-full-stm32f4\adalib\\libgnat.a(a-tags.o)
                0x0800abb4                ada__tags__dt_offset_to_top_size
 .rodata.ada__tags__dt_predef_prims_offset
                0x0800abb8        0x4 C:\gnat\2017\arm-eabi\lib\gnat\ravenscar-full-stm32f4\adalib\\libgnat.a(a-tags.o)
                0x0800abb8                ada__tags__dt_predef_prims_offset
 .rodata.ada__tags__dt_predef_prims_size
                0x0800abbc        0x4 C:\gnat\2017\arm-eabi\lib\gnat\ravenscar-full-stm32f4\adalib\\libgnat.a(a-tags.o)
                0x0800abbc                ada__tags__dt_predef_prims_size
 .rodata.ada__tags__dt_typeinfo_ptr_size
                0x0800abc0        0x4 C:\gnat\2017\arm-eabi\lib\gnat\ravenscar-full-stm32f4\adalib\\libgnat.a(a-tags.o)
                0x0800abc0                ada__tags__dt_typeinfo_ptr_size
 .rodata.ada__tags__external_tag_htable__null_ptrXn
                0x0800abc4        0x4 C:\gnat\2017\arm-eabi\lib\gnat\ravenscar-full-stm32f4\adalib\\libgnat.a(a-tags.o)
                0x0800abc4                ada__tags__external_tag_htable__null_ptrXn
 .rodata.ada__tags__max_predef_prims
                0x0800abc8        0x4 C:\gnat\2017\arm-eabi\lib\gnat\ravenscar-full-stm32f4\adalib\\libgnat.a(a-tags.o)
                0x0800abc8                ada__tags__max_predef_prims
 .rodata.ada__tags__no_tag
                0x0800abcc        0x4 C:\gnat\2017\arm-eabi\lib\gnat\ravenscar-full-stm32f4\adalib\\libgnat.a(a-tags.o)
                0x0800abcc                ada__tags__no_tag
 .rodata.ada__tags__prim_op_kindN
                0x0800abd0       0x12 C:\gnat\2017\arm-eabi\lib\gnat\ravenscar-full-stm32f4\adalib\\libgnat.a(a-tags.o)
                0x0800abd0                ada__tags__prim_op_kindN
 *fill*         0x0800abe2        0x2 
 .rodata.ada__tags__prim_op_kindS
                0x0800abe4       0x8a C:\gnat\2017\arm-eabi\lib\gnat\ravenscar-full-stm32f4\adalib\\libgnat.a(a-tags.o)
                0x0800abe4                ada__tags__prim_op_kindS
 *fill*         0x0800ac6e        0x2 
 .rodata.ada__tags__signature_kindN
                0x0800ac70        0x4 C:\gnat\2017\arm-eabi\lib\gnat\ravenscar-full-stm32f4\adalib\\libgnat.a(a-tags.o)
                0x0800ac70                ada__tags__signature_kindN
 .rodata.ada__tags__signature_kindS
                0x0800ac74       0x1d C:\gnat\2017\arm-eabi\lib\gnat\ravenscar-full-stm32f4\adalib\\libgnat.a(a-tags.o)
                0x0800ac74                ada__tags__signature_kindS
 *fill*         0x0800ac91        0x3 
 .rodata.ada__tags__tag_errorE
                0x0800ac94       0x13 C:\gnat\2017\arm-eabi\lib\gnat\ravenscar-full-stm32f4\adalib\\libgnat.a(a-tags.o)
                0x0800ac94                ada__tags__tag_errorE
 *fill*         0x0800aca7        0x1 
 .rodata.ada__tags__tagged_kindN
                0x0800aca8        0x8 C:\gnat\2017\arm-eabi\lib\gnat\ravenscar-full-stm32f4\adalib\\libgnat.a(a-tags.o)
                0x0800aca8                ada__tags__tagged_kindN
 .rodata.ada__tags__tagged_kindS
                0x0800acb0       0x59 C:\gnat\2017\arm-eabi\lib\gnat\ravenscar-full-stm32f4\adalib\\libgnat.a(a-tags.o)
                0x0800acb0                ada__tags__tagged_kindS
 *fill*         0x0800ad09        0x3 
 .rodata        0x0800ad0c      0x2f8 C:\gnat\2017\arm-eabi\lib\gnat\ravenscar-full-stm32f4\adalib\\libgnat.a(a-except.o)
 .rodata.__gnat_setup_current_excep.str1.4
                0x0800b004        0x8 C:\gnat\2017\arm-eabi\lib\gnat\ravenscar-full-stm32f4\adalib\\libgnat.a(a-except.o)
 .rodata.__gnat_rcheck_CE_Index_Check_ext.str1.4
                0x0800b00c       0x13 C:\gnat\2017\arm-eabi\lib\gnat\ravenscar-full-stm32f4\adalib\\libgnat.a(a-except.o)
 *fill*         0x0800b01f        0x1 
 .rodata.__gnat_rcheck_CE_Invalid_Data_ext.str1.4
                0x0800b020        0xd C:\gnat\2017\arm-eabi\lib\gnat\ravenscar-full-stm32f4\adalib\\libgnat.a(a-except.o)
 *fill*         0x0800b02d        0x3 
 .rodata.__gnat_rcheck_CE_Range_Check_ext.str1.4
                0x0800b030       0x13 C:\gnat\2017\arm-eabi\lib\gnat\ravenscar-full-stm32f4\adalib\\libgnat.a(a-except.o)
 *fill*         0x0800b043        0x1 
 .rodata.ada__exceptions__null_loc
                0x0800b044        0x4 C:\gnat\2017\arm-eabi\lib\gnat\ravenscar-full-stm32f4\adalib\\libgnat.a(a-except.o)
                0x0800b044                ada__exceptions__null_loc
 .rodata.ada__exceptions__null_id
                0x0800b048        0x4 C:\gnat\2017\arm-eabi\lib\gnat\ravenscar-full-stm32f4\adalib\\libgnat.a(a-except.o)
                0x0800b048                ada__exceptions__null_id
 .rodata.ada__exceptions__null_occurrence
                0x0800b04c      0x1a8 C:\gnat\2017\arm-eabi\lib\gnat\ravenscar-full-stm32f4\adalib\\libgnat.a(a-except.o)
                0x0800b04c                ada__exceptions__null_occurrence
 .rodata.ada__exceptions__rmsg_00
                0x0800b1f4       0x14 C:\gnat\2017\arm-eabi\lib\gnat\ravenscar-full-stm32f4\adalib\\libgnat.a(a-except.o)
                0x0800b1f4                ada__exceptions__rmsg_00
 .rodata.ada__exceptions__rmsg_01
                0x0800b208       0x19 C:\gnat\2017\arm-eabi\lib\gnat\ravenscar-full-stm32f4\adalib\\libgnat.a(a-except.o)
                0x0800b208                ada__exceptions__rmsg_01
 *fill*         0x0800b221        0x3 
 .rodata.ada__exceptions__rmsg_02
                0x0800b224       0x1a C:\gnat\2017\arm-eabi\lib\gnat\ravenscar-full-stm32f4\adalib\\libgnat.a(a-except.o)
                0x0800b224                ada__exceptions__rmsg_02
 *fill*         0x0800b23e        0x2 
 .rodata.ada__exceptions__rmsg_03
                0x0800b240        0xf C:\gnat\2017\arm-eabi\lib\gnat\ravenscar-full-stm32f4\adalib\\libgnat.a(a-except.o)
                0x0800b240                ada__exceptions__rmsg_03
 *fill*         0x0800b24f        0x1 
 .rodata.ada__exceptions__rmsg_04
                0x0800b250        0xf C:\gnat\2017\arm-eabi\lib\gnat\ravenscar-full-stm32f4\adalib\\libgnat.a(a-except.o)
                0x0800b250                ada__exceptions__rmsg_04
 *fill*         0x0800b25f        0x1 
 .rodata.ada__exceptions__rmsg_05
                0x0800b260       0x13 C:\gnat\2017\arm-eabi\lib\gnat\ravenscar-full-stm32f4\adalib\\libgnat.a(a-except.o)
                0x0800b260                ada__exceptions__rmsg_05
 *fill*         0x0800b273        0x1 
 .rodata.ada__exceptions__rmsg_06
                0x0800b274        0xd C:\gnat\2017\arm-eabi\lib\gnat\ravenscar-full-stm32f4\adalib\\libgnat.a(a-except.o)
                0x0800b274                ada__exceptions__rmsg_06
 *fill*         0x0800b281        0x3 
 .rodata.ada__exceptions__rmsg_07
                0x0800b284       0x14 C:\gnat\2017\arm-eabi\lib\gnat\ravenscar-full-stm32f4\adalib\\libgnat.a(a-except.o)
                0x0800b284                ada__exceptions__rmsg_07
 .rodata.ada__exceptions__rmsg_08
                0x0800b298       0x12 C:\gnat\2017\arm-eabi\lib\gnat\ravenscar-full-stm32f4\adalib\\libgnat.a(a-except.o)
                0x0800b298                ada__exceptions__rmsg_08
 *fill*         0x0800b2aa        0x2 
 .rodata.ada__exceptions__rmsg_09
                0x0800b2ac       0x1c C:\gnat\2017\arm-eabi\lib\gnat\ravenscar-full-stm32f4\adalib\\libgnat.a(a-except.o)
                0x0800b2ac                ada__exceptions__rmsg_09
 .rodata.ada__exceptions__rmsg_10
                0x0800b2c8       0x16 C:\gnat\2017\arm-eabi\lib\gnat\ravenscar-full-stm32f4\adalib\\libgnat.a(a-except.o)
                0x0800b2c8                ada__exceptions__rmsg_10
 *fill*         0x0800b2de        0x2 
 .rodata.ada__exceptions__rmsg_11
                0x0800b2e0       0x17 C:\gnat\2017\arm-eabi\lib\gnat\ravenscar-full-stm32f4\adalib\\libgnat.a(a-except.o)
                0x0800b2e0                ada__exceptions__rmsg_11
 *fill*         0x0800b2f7        0x1 
 .rodata.ada__exceptions__rmsg_12
                0x0800b2f8       0x13 C:\gnat\2017\arm-eabi\lib\gnat\ravenscar-full-stm32f4\adalib\\libgnat.a(a-except.o)
                0x0800b2f8                ada__exceptions__rmsg_12
 *fill*         0x0800b30b        0x1 
 .rodata.ada__exceptions__rmsg_13
                0x0800b30c       0x11 C:\gnat\2017\arm-eabi\lib\gnat\ravenscar-full-stm32f4\adalib\\libgnat.a(a-except.o)
                0x0800b30c                ada__exceptions__rmsg_13
 *fill*         0x0800b31d        0x3 
 .rodata.ada__exceptions__rmsg_14
                0x0800b320       0x1a C:\gnat\2017\arm-eabi\lib\gnat\ravenscar-full-stm32f4\adalib\\libgnat.a(a-except.o)
                0x0800b320                ada__exceptions__rmsg_14
 *fill*         0x0800b33a        0x2 
 .rodata.ada__exceptions__rmsg_15
                0x0800b33c       0x1b C:\gnat\2017\arm-eabi\lib\gnat\ravenscar-full-stm32f4\adalib\\libgnat.a(a-except.o)
                0x0800b33c                ada__exceptions__rmsg_15
 *fill*         0x0800b357        0x1 
 .rodata.ada__exceptions__rmsg_16
                0x0800b358       0x30 C:\gnat\2017\arm-eabi\lib\gnat\ravenscar-full-stm32f4\adalib\\libgnat.a(a-except.o)
                0x0800b358                ada__exceptions__rmsg_16
 .rodata.ada__exceptions__rmsg_17
                0x0800b388       0x13 C:\gnat\2017\arm-eabi\lib\gnat\ravenscar-full-stm32f4\adalib\\libgnat.a(a-except.o)
                0x0800b388                ada__exceptions__rmsg_17
 *fill*         0x0800b39b        0x1 
 .rodata.ada__exceptions__rmsg_18
                0x0800b39c       0x12 C:\gnat\2017\arm-eabi\lib\gnat\ravenscar-full-stm32f4\adalib\\libgnat.a(a-except.o)
                0x0800b39c                ada__exceptions__rmsg_18
 *fill*         0x0800b3ae        0x2 
 .rodata.ada__exceptions__rmsg_19
                0x0800b3b0       0x2f C:\gnat\2017\arm-eabi\lib\gnat\ravenscar-full-stm32f4\adalib\\libgnat.a(a-except.o)
                0x0800b3b0                ada__exceptions__rmsg_19
 *fill*         0x0800b3df        0x1 
 .rodata.ada__exceptions__rmsg_20
                0x0800b3e0       0x26 C:\gnat\2017\arm-eabi\lib\gnat\ravenscar-full-stm32f4\adalib\\libgnat.a(a-except.o)
                0x0800b3e0                ada__exceptions__rmsg_20
 *fill*         0x0800b406        0x2 
 .rodata.ada__exceptions__rmsg_21
                0x0800b408       0x19 C:\gnat\2017\arm-eabi\lib\gnat\ravenscar-full-stm32f4\adalib\\libgnat.a(a-except.o)
                0x0800b408                ada__exceptions__rmsg_21
 *fill*         0x0800b421        0x3 
 .rodata.ada__exceptions__rmsg_22
                0x0800b424        0xf C:\gnat\2017\arm-eabi\lib\gnat\ravenscar-full-stm32f4\adalib\\libgnat.a(a-except.o)
                0x0800b424                ada__exceptions__rmsg_22
 *fill*         0x0800b433        0x1 
 .rodata.ada__exceptions__rmsg_23
                0x0800b434       0x21 C:\gnat\2017\arm-eabi\lib\gnat\ravenscar-full-stm32f4\adalib\\libgnat.a(a-except.o)
                0x0800b434                ada__exceptions__rmsg_23
 *fill*         0x0800b455        0x3 
 .rodata.ada__exceptions__rmsg_24
                0x0800b458       0x1f C:\gnat\2017\arm-eabi\lib\gnat\ravenscar-full-stm32f4\adalib\\libgnat.a(a-except.o)
                0x0800b458                ada__exceptions__rmsg_24
 *fill*         0x0800b477        0x1 
 .rodata.ada__exceptions__rmsg_25
                0x0800b478       0x19 C:\gnat\2017\arm-eabi\lib\gnat\ravenscar-full-stm32f4\adalib\\libgnat.a(a-except.o)
                0x0800b478                ada__exceptions__rmsg_25
 *fill*         0x0800b491        0x3 
 .rodata.ada__exceptions__rmsg_26
                0x0800b494        0xf C:\gnat\2017\arm-eabi\lib\gnat\ravenscar-full-stm32f4\adalib\\libgnat.a(a-except.o)
                0x0800b494                ada__exceptions__rmsg_26
 *fill*         0x0800b4a3        0x1 
 .rodata.ada__exceptions__rmsg_27
                0x0800b4a4       0x1b C:\gnat\2017\arm-eabi\lib\gnat\ravenscar-full-stm32f4\adalib\\libgnat.a(a-except.o)
                0x0800b4a4                ada__exceptions__rmsg_27
 *fill*         0x0800b4bf        0x1 
 .rodata.ada__exceptions__rmsg_28
                0x0800b4c0       0x1f C:\gnat\2017\arm-eabi\lib\gnat\ravenscar-full-stm32f4\adalib\\libgnat.a(a-except.o)
                0x0800b4c0                ada__exceptions__rmsg_28
 *fill*         0x0800b4df        0x1 
 .rodata.ada__exceptions__rmsg_29
                0x0800b4e0       0x1a C:\gnat\2017\arm-eabi\lib\gnat\ravenscar-full-stm32f4\adalib\\libgnat.a(a-except.o)
                0x0800b4e0                ada__exceptions__rmsg_29
 *fill*         0x0800b4fa        0x2 
 .rodata.ada__exceptions__rmsg_30
                0x0800b4fc       0x1c C:\gnat\2017\arm-eabi\lib\gnat\ravenscar-full-stm32f4\adalib\\libgnat.a(a-except.o)
                0x0800b4fc                ada__exceptions__rmsg_30
 .rodata.ada__exceptions__rmsg_31
                0x0800b518       0x33 C:\gnat\2017\arm-eabi\lib\gnat\ravenscar-full-stm32f4\adalib\\libgnat.a(a-except.o)
                0x0800b518                ada__exceptions__rmsg_31
 *fill*         0x0800b54b        0x1 
 .rodata.ada__exceptions__rmsg_32
                0x0800b54c       0x13 C:\gnat\2017\arm-eabi\lib\gnat\ravenscar-full-stm32f4\adalib\\libgnat.a(a-except.o)
                0x0800b54c                ada__exceptions__rmsg_32
 *fill*         0x0800b55f        0x1 
 .rodata.ada__exceptions__rmsg_33
                0x0800b560        0xf C:\gnat\2017\arm-eabi\lib\gnat\ravenscar-full-stm32f4\adalib\\libgnat.a(a-except.o)
                0x0800b560                ada__exceptions__rmsg_33
 *fill*         0x0800b56f        0x1 
 .rodata.ada__exceptions__rmsg_34
                0x0800b570       0x13 C:\gnat\2017\arm-eabi\lib\gnat\ravenscar-full-stm32f4\adalib\\libgnat.a(a-except.o)
                0x0800b570                ada__exceptions__rmsg_34
 *fill*         0x0800b583        0x1 
 .rodata.ada__exceptions__rmsg_35
                0x0800b584       0x11 C:\gnat\2017\arm-eabi\lib\gnat\ravenscar-full-stm32f4\adalib\\libgnat.a(a-except.o)
                0x0800b584                ada__exceptions__rmsg_35
 *fill*         0x0800b595        0x3 
 .rodata.ada__exceptions__rmsg_36
                0x0800b598       0x1d C:\gnat\2017\arm-eabi\lib\gnat\ravenscar-full-stm32f4\adalib\\libgnat.a(a-except.o)
                0x0800b598                ada__exceptions__rmsg_36
 *fill*         0x0800b5b5        0x3 
 .rodata.ada__exceptions__counter
                0x0800b5b8        0x4 C:\gnat\2017\arm-eabi\lib\gnat\ravenscar-full-stm32f4\adalib\\libgnat.a(a-except.o)
                0x0800b5b8                ada__exceptions__counter
 .rodata.ada__exceptions__exception_data__bei_name_headerXn
                0x0800b5bc        0x8 C:\gnat\2017\arm-eabi\lib\gnat\ravenscar-full-stm32f4\adalib\\libgnat.a(a-except.o)
                0x0800b5bc                ada__exceptions__exception_data__bei_name_headerXn
 .rodata.ada__exceptions__exception_data__bei_msg_headerXn
                0x0800b5c4        0x4 C:\gnat\2017\arm-eabi\lib\gnat\ravenscar-full-stm32f4\adalib\\libgnat.a(a-except.o)
                0x0800b5c4                ada__exceptions__exception_data__bei_msg_headerXn
 .rodata.ada__exceptions__exception_data__bei_pid_headerXn
                0x0800b5c8        0x8 C:\gnat\2017\arm-eabi\lib\gnat\ravenscar-full-stm32f4\adalib\\libgnat.a(a-except.o)
                0x0800b5c8                ada__exceptions__exception_data__bei_pid_headerXn
 .rodata.ada__exceptions__exception_data__betb_headerXn
                0x0800b5d0       0x1f C:\gnat\2017\arm-eabi\lib\gnat\ravenscar-full-stm32f4\adalib\\libgnat.a(a-except.o)
                0x0800b5d0                ada__exceptions__exception_data__betb_headerXn
 *fill*         0x0800b5ef        0x1 
 .rodata.ada__exceptions__exception_data__ldad_headerXn
                0x0800b5f0        0xe C:\gnat\2017\arm-eabi\lib\gnat\ravenscar-full-stm32f4\adalib\\libgnat.a(a-except.o)
                0x0800b5f0                ada__exceptions__exception_data__ldad_headerXn
 .rodata.__gnat_others_value
                0x0800b5fe        0x1 C:\gnat\2017\arm-eabi\lib\gnat\ravenscar-full-stm32f4\adalib\\libgnat.a(a-except.o)
                0x0800b5fe                __gnat_others_value
 .rodata.__gnat_all_others_value
                0x0800b5ff        0x1 C:\gnat\2017\arm-eabi\lib\gnat\ravenscar-full-stm32f4\adalib\\libgnat.a(a-except.o)
                0x0800b5ff                __gnat_all_others_value
 .rodata.__gnat_unhandled_others_value
                0x0800b600        0x1 C:\gnat\2017\arm-eabi\lib\gnat\ravenscar-full-stm32f4\adalib\\libgnat.a(a-except.o)
                0x0800b600                __gnat_unhandled_others_value
 *fill*         0x0800b601        0x3 
 .rodata.ada__exceptions__exception_traces__nlineXn
                0x0800b604        0x1 C:\gnat\2017\arm-eabi\lib\gnat\ravenscar-full-stm32f4\adalib\\libgnat.a(a-except.o)
                0x0800b604                ada__exceptions__exception_traces__nlineXn
 *fill*         0x0800b605        0x3 
 .rodata.h.6261
                0x0800b608       0x10 C:\gnat\2017\arm-eabi\lib\gnat\ravenscar-full-stm32f4\adalib\\libgnat.a(a-except.o)
 .rodata.prefix.6970
                0x0800b618       0x17 C:\gnat\2017\arm-eabi\lib\gnat\ravenscar-full-stm32f4\adalib\\libgnat.a(a-except.o)
 *fill*         0x0800b62f        0x1 
 .rodata        0x0800b630       0x94 C:\gnat\2017\arm-eabi\lib\gnat\ravenscar-full-stm32f4\adalib\\libgnat.a(a-elchha.o)
 .rodata        0x0800b6c4        0xd C:\gnat\2017\arm-eabi\lib\gnat\ravenscar-full-stm32f4\adalib\\libgnat.a(s-secsta.o)
 *fill*         0x0800b6d1        0x3 
 .rodata.system__secondary_stack__minimum_secondary_stack_size
                0x0800b6d4        0x4 C:\gnat\2017\arm-eabi\lib\gnat\ravenscar-full-stm32f4\adalib\\libgnat.a(s-secsta.o)
                0x0800b6d4                system__secondary_stack__minimum_secondary_stack_size
 .rodata.__gnat_personality_v0.str1.4
                0x0800b6d8        0x8 C:\gnat\2017\arm-eabi\lib\gnat\ravenscar-full-stm32f4\adalib\\libgnat.a(raise-gcc.o)
                                 0x10 (size before relaxing)
 .rodata.__gnat_unwind_exception_size
                0x0800b6e0        0x4 C:\gnat\2017\arm-eabi\lib\gnat\ravenscar-full-stm32f4\adalib\\libgnat.a(raise-gcc.o)
                0x0800b6e0                __gnat_unwind_exception_size
 .rodata.system__bb__interrupts__no_interrupt
                0x0800b6e4        0x4 C:\gnat\2017\arm-eabi\lib\gnat\ravenscar-full-stm32f4\adalib\\libgnat.a(s-bbinte.o)
                0x0800b6e4                system__bb__interrupts__no_interrupt
 .rodata        0x0800b6e8      0x198 C:\gnat\2017\arm-eabi\lib\gnat\ravenscar-full-stm32f4\adalib\\libgnat.a(s-bbcppr.o)
 .rodata.system__bb__cpu_primitives__bus_fault_vector
                0x0800b880        0x1 C:\gnat\2017\arm-eabi\lib\gnat\ravenscar-full-stm32f4\adalib\\libgnat.a(s-bbcppr.o)
                0x0800b880                system__bb__cpu_primitives__bus_fault_vector
 .rodata.system__bb__cpu_primitives__hard_fault_vector
                0x0800b881        0x1 C:\gnat\2017\arm-eabi\lib\gnat\ravenscar-full-stm32f4\adalib\\libgnat.a(s-bbcppr.o)
                0x0800b881                system__bb__cpu_primitives__hard_fault_vector
 *fill*         0x0800b882        0x2 
 .rodata.system__bb__cpu_primitives__icsr_pend_sv_set
                0x0800b884        0x4 C:\gnat\2017\arm-eabi\lib\gnat\ravenscar-full-stm32f4\adalib\\libgnat.a(s-bbcppr.o)
                0x0800b884                system__bb__cpu_primitives__icsr_pend_sv_set
 .rodata.system__bb__cpu_primitives__interrupt_request_vector
                0x0800b888        0x1 C:\gnat\2017\arm-eabi\lib\gnat\ravenscar-full-stm32f4\adalib\\libgnat.a(s-bbcppr.o)
                0x0800b888                system__bb__cpu_primitives__interrupt_request_vector
 *fill*         0x0800b889        0x3 
 .rodata.system__bb__cpu_primitives__nl
                0x0800b88c        0x2 C:\gnat\2017\arm-eabi\lib\gnat\ravenscar-full-stm32f4\adalib\\libgnat.a(s-bbcppr.o)
                0x0800b88c                system__bb__cpu_primitives__nl
 .rodata.system__bb__cpu_primitives__nmi_vector
                0x0800b88e        0x1 C:\gnat\2017\arm-eabi\lib\gnat\ravenscar-full-stm32f4\adalib\\libgnat.a(s-bbcppr.o)
                0x0800b88e                system__bb__cpu_primitives__nmi_vector
 .rodata.system__bb__cpu_primitives__no_floating_point
                0x0800b88f        0x1 C:\gnat\2017\arm-eabi\lib\gnat\ravenscar-full-stm32f4\adalib\\libgnat.a(s-bbcppr.o)
                0x0800b88f                system__bb__cpu_primitives__no_floating_point
 .rodata.system__bb__cpu_primitives__pend_sv_vector
                0x0800b890        0x1 C:\gnat\2017\arm-eabi\lib\gnat\ravenscar-full-stm32f4\adalib\\libgnat.a(s-bbcppr.o)
                0x0800b890                system__bb__cpu_primitives__pend_sv_vector
 .rodata.system__bb__cpu_primitives__reset_vector
                0x0800b891        0x1 C:\gnat\2017\arm-eabi\lib\gnat\ravenscar-full-stm32f4\adalib\\libgnat.a(s-bbcppr.o)
                0x0800b891                system__bb__cpu_primitives__reset_vector
 .rodata.system__bb__cpu_primitives__sp_process
                0x0800b892        0x1 C:\gnat\2017\arm-eabi\lib\gnat\ravenscar-full-stm32f4\adalib\\libgnat.a(s-bbcppr.o)
                0x0800b892                system__bb__cpu_primitives__sp_process
 .rodata.system__bb__cpu_primitives__sv_call_vector
                0x0800b893        0x1 C:\gnat\2017\arm-eabi\lib\gnat\ravenscar-full-stm32f4\adalib\\libgnat.a(s-bbcppr.o)
                0x0800b893                system__bb__cpu_primitives__sv_call_vector
 .rodata.system__bb__cpu_primitives__sys_tick_vector
                0x0800b894        0x1 C:\gnat\2017\arm-eabi\lib\gnat\ravenscar-full-stm32f4\adalib\\libgnat.a(s-bbcppr.o)
                0x0800b894                system__bb__cpu_primitives__sys_tick_vector
 .rodata.system__bb__cpu_primitives__usage_fault_vector
                0x0800b895        0x1 C:\gnat\2017\arm-eabi\lib\gnat\ravenscar-full-stm32f4\adalib\\libgnat.a(s-bbcppr.o)
                0x0800b895                system__bb__cpu_primitives__usage_fault_vector
 *fill*         0x0800b896        0x2 
 .rodata.system__bb__board_support__alarm_interrupt_id
                0x0800b898        0x4 C:\gnat\2017\arm-eabi\lib\gnat\ravenscar-full-stm32f4\adalib\\libgnat.a(s-bbbosu.o)
                0x0800b898                system__bb__board_support__alarm_interrupt_id
 .rodata.system__bb__board_support__interrupt_request_vector
                0x0800b89c        0x1 C:\gnat\2017\arm-eabi\lib\gnat\ravenscar-full-stm32f4\adalib\\libgnat.a(s-bbbosu.o)
                0x0800b89c                system__bb__board_support__interrupt_request_vector
 *fill*         0x0800b89d        0x3 
 .rodata.system__bb__board_support__nvic_iser0
                0x0800b8a0        0x4 C:\gnat\2017\arm-eabi\lib\gnat\ravenscar-full-stm32f4\adalib\\libgnat.a(s-bbbosu.o)
                0x0800b8a0                system__bb__board_support__nvic_iser0
 .rodata.system__bb__board_support__sys_tick_vector
                0x0800b8a4        0x1 C:\gnat\2017\arm-eabi\lib\gnat\ravenscar-full-stm32f4\adalib\\libgnat.a(s-bbbosu.o)
                0x0800b8a4                system__bb__board_support__sys_tick_vector
 *fill*         0x0800b8a5        0x3 
 .rodata.system__bb__board_support__tick_period
                0x0800b8a8        0x4 C:\gnat\2017\arm-eabi\lib\gnat\ravenscar-full-stm32f4\adalib\\libgnat.a(s-bbbosu.o)
                0x0800b8a8                system__bb__board_support__tick_period
 .rodata.system__bb__time__initial_composite_execution_time
                0x0800b8ac        0x8 C:\gnat\2017\arm-eabi\lib\gnat\ravenscar-full-stm32f4\adalib\\libgnat.a(s-bbtime.o)
                0x0800b8ac                system__bb__time__initial_composite_execution_time
 .rodata.system__bb__time__periods_in_epoch
                0x0800b8b4        0x4 C:\gnat\2017\arm-eabi\lib\gnat\ravenscar-full-stm32f4\adalib\\libgnat.a(s-bbtime.o)
                0x0800b8b4                system__bb__time__periods_in_epoch
 .rodata.system__bb__time__update_in_progress
                0x0800b8b8        0x4 C:\gnat\2017\arm-eabi\lib\gnat\ravenscar-full-stm32f4\adalib\\libgnat.a(s-bbtime.o)
                0x0800b8b8                system__bb__time__update_in_progress
 .rodata.system__exceptions__machine__gnat_exception_class
                0x0800b8bc        0x8 C:\gnat\2017\arm-eabi\lib\gnat\ravenscar-full-stm32f4\adalib\\libgnat.a(s-excmac.o)
                0x0800b8bc                system__exceptions__machine__gnat_exception_class
 .rodata.system__exceptions__machine__new_occurrence.str1.4
                0x0800b8c4        0x8 C:\gnat\2017\arm-eabi\lib\gnat\ravenscar-full-stm32f4\adalib\\libgnat.a(s-excmac.o)
 .rodata.system__exceptions__machine__unwind_reason_codeN
                0x0800b8c4       0x16 C:\gnat\2017\arm-eabi\lib\gnat\ravenscar-full-stm32f4\adalib\\libgnat.a(s-excmac.o)
                0x0800b8c4                system__exceptions__machine__unwind_reason_codeN
 *fill*         0x0800b8da        0x2 
 .rodata.system__exceptions__machine__unwind_reason_codeS
                0x0800b8dc       0x90 C:\gnat\2017\arm-eabi\lib\gnat\ravenscar-full-stm32f4\adalib\\libgnat.a(s-excmac.o)
                0x0800b8dc                system__exceptions__machine__unwind_reason_codeS
 .rodata.system__exceptions__machine__us_unwind_frame_resume
                0x0800b96c        0x4 C:\gnat\2017\arm-eabi\lib\gnat\ravenscar-full-stm32f4\adalib\\libgnat.a(s-excmac.o)
                0x0800b96c                system__exceptions__machine__us_unwind_frame_resume
 .rodata.system__exceptions__machine__us_unwind_frame_starting
                0x0800b970        0x4 C:\gnat\2017\arm-eabi\lib\gnat\ravenscar-full-stm32f4\adalib\\libgnat.a(s-excmac.o)
                0x0800b970                system__exceptions__machine__us_unwind_frame_starting
 .rodata.system__exceptions__machine__us_virtual_unwind_frame
                0x0800b974        0x4 C:\gnat\2017\arm-eabi\lib\gnat\ravenscar-full-stm32f4\adalib\\libgnat.a(s-excmac.o)
                0x0800b974                system__exceptions__machine__us_virtual_unwind_frame
 .rodata        0x0800b978       0xb4 C:\gnat\2017\arm-eabi\lib\gnat\ravenscar-full-stm32f4\adalib\\libgnat.a(s-wchstw.o)
 .rodata        0x0800ba2c        0xd C:\gnat\2017\arm-eabi\lib\gnat\ravenscar-full-stm32f4\adalib\\libgnat.a(s-wchjis.o)
 *fill*         0x0800ba39        0x3 
 .rodata        0x0800ba3c       0x38 C:\gnat\2017\arm-eabi\lib\gnat\ravenscar-full-stm32f4\adalib\\libgnat.a(s-wchcon.o)
 .rodata.system__wch_con__wc_encoding_letters
                0x0800ba74        0x8 C:\gnat\2017\arm-eabi\lib\gnat\ravenscar-full-stm32f4\adalib\\libgnat.a(s-wchcon.o)
                0x0800ba74                system__wch_con__wc_encoding_letters
 .rodata.system__wch_con__wc_longest_sequences
                0x0800ba7c       0x18 C:\gnat\2017\arm-eabi\lib\gnat\ravenscar-full-stm32f4\adalib\\libgnat.a(s-wchcon.o)
                0x0800ba7c                system__wch_con__wc_longest_sequences
 .rodata.system__wch_con__wcem_brackets
                0x0800ba94        0x1 C:\gnat\2017\arm-eabi\lib\gnat\ravenscar-full-stm32f4\adalib\\libgnat.a(s-wchcon.o)
                0x0800ba94                system__wch_con__wcem_brackets
 .rodata.system__wch_con__wcem_euc
                0x0800ba95        0x1 C:\gnat\2017\arm-eabi\lib\gnat\ravenscar-full-stm32f4\adalib\\libgnat.a(s-wchcon.o)
                0x0800ba95                system__wch_con__wcem_euc
 .rodata.system__wch_con__wcem_hex
                0x0800ba96        0x1 C:\gnat\2017\arm-eabi\lib\gnat\ravenscar-full-stm32f4\adalib\\libgnat.a(s-wchcon.o)
                0x0800ba96                system__wch_con__wcem_hex
 .rodata.system__wch_con__wcem_shift_jis
                0x0800ba97        0x1 C:\gnat\2017\arm-eabi\lib\gnat\ravenscar-full-stm32f4\adalib\\libgnat.a(s-wchcon.o)
                0x0800ba97                system__wch_con__wcem_shift_jis
 .rodata.system__wch_con__wcem_upper
                0x0800ba98        0x1 C:\gnat\2017\arm-eabi\lib\gnat\ravenscar-full-stm32f4\adalib\\libgnat.a(s-wchcon.o)
                0x0800ba98                system__wch_con__wcem_upper
 .rodata.system__wch_con__wcem_utf8
                0x0800ba99        0x1 C:\gnat\2017\arm-eabi\lib\gnat\ravenscar-full-stm32f4\adalib\\libgnat.a(s-wchcon.o)
                0x0800ba99                system__wch_con__wcem_utf8
 *fill*         0x0800ba9a        0x2 
 .rodata        0x0800ba9c       0x5c C:\gnat\2017\arm-eabi\lib\gnat\ravenscar-full-stm32f4\adalib\\libgnat.a(s-valuns.o)
 .rodata.system__traceback_entries__null_tb_entry
                0x0800baf8        0x4 C:\gnat\2017\arm-eabi\lib\gnat\ravenscar-full-stm32f4\adalib\\libgnat.a(s-traent.o)
                0x0800baf8                system__traceback_entries__null_tb_entry
 .rodata        0x0800bafc       0x30 C:\gnat\2017\arm-eabi\lib\gnat\ravenscar-full-stm32f4\adalib\\libgnat.a(s-memory.o)
 .rodata        0x0800bb2c        0x8 C:\gnat\2017\arm-eabi\lib\gnat\ravenscar-full-stm32f4\adalib\\libgnat.a(s-io.o)
 .rodata.system__io__file_typeN
                0x0800bb34        0x4 C:\gnat\2017\arm-eabi\lib\gnat\ravenscar-full-stm32f4\adalib\\libgnat.a(s-io.o)
                0x0800bb34                system__io__file_typeN
 .rodata.system__io__file_typeS
                0x0800bb38        0xc C:\gnat\2017\arm-eabi\lib\gnat\ravenscar-full-stm32f4\adalib\\libgnat.a(s-io.o)
                0x0800bb38                system__io__file_typeS
 .rodata.system__exceptions__R2s
                0x0800bb44        0x4 C:\gnat\2017\arm-eabi\lib\gnat\ravenscar-full-stm32f4\adalib\\libgnat.a(s-except.o)
                0x0800bb44                system__exceptions__R2s
 .rodata.system__exceptions__foreign_exceptionE
                0x0800bb48       0x24 C:\gnat\2017\arm-eabi\lib\gnat\ravenscar-full-stm32f4\adalib\\libgnat.a(s-except.o)
                0x0800bb48                system__exceptions__foreign_exceptionE
 .rodata.system__exceptions__zcx_by_default
                0x0800bb6c        0x1 C:\gnat\2017\arm-eabi\lib\gnat\ravenscar-full-stm32f4\adalib\\libgnat.a(s-except.o)
                0x0800bb6c                system__exceptions__zcx_by_default
 *fill*         0x0800bb6d        0x3 
 .rodata        0x0800bb70       0x15 C:\gnat\2017\arm-eabi\lib\gnat\ravenscar-full-stm32f4\adalib\\libgnat.a(g-debuti.o)
 .rodata.gnat__debug_utilities__address_64
                0x0800bb85        0x1 C:\gnat\2017\arm-eabi\lib\gnat\ravenscar-full-stm32f4\adalib\\libgnat.a(g-debuti.o)
                0x0800bb85                gnat__debug_utilities__address_64
 *fill*         0x0800bb86        0x2 
 .rodata.gnat__debug_utilities__h
                0x0800bb88       0x10 C:\gnat\2017\arm-eabi\lib\gnat\ravenscar-full-stm32f4\adalib\\libgnat.a(g-debuti.o)
 .rodata        0x0800bb98       0x17 C:\gnat\2017\arm-eabi\lib\gnat\ravenscar-full-stm32f4\adalib\\libgnat.a(s-valuti.o)
 *fill*         0x0800bbaf        0x1 
 .rodata        0x0800bbb0        0x4 c:/gnat/2017/bin/../lib/gcc/arm-eabi/6.3.1/../../../../arm-eabi/lib/armv7em/thumb/fpu/fpv4-sp-d16\libc.a(lib_a-impure.o)
                0x0800bbb0                _global_impure_ptr
 .rodata.str1.4
                0x0800bbb4        0x4 c:/gnat/2017/bin/../lib/gcc/arm-eabi/6.3.1/../../../../arm-eabi/lib/armv7em/thumb/fpu/fpv4-sp-d16\libc.a(lib_a-impure.o)
                                  0x2 (size before relaxing)
                0x0800bbb8                . = ALIGN (0x4)
                0x0800bbb8                __rom_end = .
                0x0800bbb8                __data_load = __rom_end

.rel.dyn        0x0800bbb8        0x0
 .rel.iplt      0x0800bbb8        0x0 project_main.o

.data           0x20000000      0xa3c load address 0x0800bbb8
                0x20000000                __data_start = .
 *(.data .data.* .gnu.linkonce.d*)
 .data          0x20000000        0x0 project_main.o
 .data          0x20000000        0x3 b__project_main.o
                0x20000000                ada_main_E
 *fill*         0x20000003        0x1 
 .data          0x20000004        0x2 C:\Users\simon\OneDrive\Documents\STM32\System Project\obj\constants.o
                0x20000004                constants_E
 .data          0x20000006        0x2 C:\Users\simon\OneDrive\Documents\STM32\System Project\obj\failure_types.o
                0x20000006                failure_types_E
 .data          0x20000008        0x2 C:\Users\simon\OneDrive\Documents\STM32\System Project\obj\failure_log.o
                0x20000008                failure_log_E
 .data          0x2000000a        0x2 C:\Users\simon\OneDrive\Documents\STM32\System Project\obj\first_phase.o
                0x2000000a                first_phase_E
 .data          0x2000000c        0x2 C:\Users\simon\OneDrive\Documents\STM32\System Project\obj\registers.o
                0x2000000c                registers_E
 .data          0x2000000e        0x2 C:\Users\simon\OneDrive\Documents\STM32\System Project\obj\signals.o
                0x2000000e                signals_E
 .data          0x20000010        0x2 C:\Users\simon\OneDrive\Documents\STM32\System Project\obj\signal_register_database.o
                0x20000010                signal_register_database_E
 .data          0x20000012        0x2 C:\Users\simon\OneDrive\Documents\STM32\System Project\obj\main_system_checks.o
                0x20000012                main_system_checks_E
 .data          0x20000014        0x0 C:\gnat\2017\arm-eabi\lib\gnat\ravenscar-full-stm32f4\adalib\\libgnat.a(start-rom.o)
 .data          0x20000014        0x0 C:\gnat\2017\arm-eabi\lib\gnat\ravenscar-full-stm32f4\adalib\\libgnat.a(start-common.o)
 .data          0x20000014        0x0 C:\gnat\2017\arm-eabi\lib\gnat\ravenscar-full-stm32f4\adalib\\libgnat.a(setup_pll.o)
 .data.setup_pll_E
                0x20000014        0x2 C:\gnat\2017\arm-eabi\lib\gnat\ravenscar-full-stm32f4\adalib\\libgnat.a(setup_pll.o)
                0x20000014                setup_pll_E
 .data          0x20000016        0x0 C:\gnat\2017\arm-eabi\lib\gnat\ravenscar-full-stm32f4\adalib\\libgnat.a(s-macres.o)
 .data.system__machine_reset_E
                0x20000016        0x2 C:\gnat\2017\arm-eabi\lib\gnat\ravenscar-full-stm32f4\adalib\\libgnat.a(s-macres.o)
                0x20000016                system__machine_reset_E
 .data          0x20000018        0x0 C:\gnat\2017\arm-eabi\lib\gnat\ravenscar-full-stm32f4\adalib\\libgnat.a(s-taskin.o)
 .data.__gl_main_cpu
                0x20000018        0x4 C:\gnat\2017\arm-eabi\lib\gnat\ravenscar-full-stm32f4\adalib\\libgnat.a(s-taskin.o)
                0x20000018                __gl_main_cpu
 .data.__gl_main_priority
                0x2000001c        0x4 C:\gnat\2017\arm-eabi\lib\gnat\ravenscar-full-stm32f4\adalib\\libgnat.a(s-taskin.o)
                0x2000001c                __gl_main_priority
 .data.system__tasking__fall_back_handler
                0x20000020        0x8 C:\gnat\2017\arm-eabi\lib\gnat\ravenscar-full-stm32f4\adalib\\libgnat.a(s-taskin.o)
                0x20000020                system__tasking__fall_back_handler
 .data.system__tasking__initialized
                0x20000028        0x1 C:\gnat\2017\arm-eabi\lib\gnat\ravenscar-full-stm32f4\adalib\\libgnat.a(s-taskin.o)
 .data          0x20000029        0x0 C:\gnat\2017\arm-eabi\lib\gnat\ravenscar-full-stm32f4\adalib\\libgnat.a(s-tasdeb.o)
 *fill*         0x20000029        0x1 
 .data.system__tasking__debug_E
                0x2000002a        0x2 C:\gnat\2017\arm-eabi\lib\gnat\ravenscar-full-stm32f4\adalib\\libgnat.a(s-tasdeb.o)
                0x2000002a                system__tasking__debug_E
 .data.system__tasking__debug__first_task
                0x2000002c        0x4 C:\gnat\2017\arm-eabi\lib\gnat\ravenscar-full-stm32f4\adalib\\libgnat.a(s-tasdeb.o)
                0x2000002c                system__tasking__debug__first_task
 .data.system__tasking__debug__last_task
                0x20000030        0x4 C:\gnat\2017\arm-eabi\lib\gnat\ravenscar-full-stm32f4\adalib\\libgnat.a(s-tasdeb.o)
                0x20000030                system__tasking__debug__last_task
 .data          0x20000034        0x0 C:\gnat\2017\arm-eabi\lib\gnat\ravenscar-full-stm32f4\adalib\\libgnat.a(s-taprop.o)
 .data.system__task_primitives__operations__environment_task
                0x20000034        0x4 C:\gnat\2017\arm-eabi\lib\gnat\ravenscar-full-stm32f4\adalib\\libgnat.a(s-taprop.o)
                0x20000034                system__task_primitives__operations__environment_task
 .data          0x20000038        0x0 C:\gnat\2017\arm-eabi\lib\gnat\ravenscar-full-stm32f4\adalib\\libgnat.a(s-parame.o)
 .data.system__parameters_E
                0x20000038        0x2 C:\gnat\2017\arm-eabi\lib\gnat\ravenscar-full-stm32f4\adalib\\libgnat.a(s-parame.o)
                0x20000038                system__parameters_E
 .data          0x2000003a        0x0 C:\gnat\2017\arm-eabi\lib\gnat\ravenscar-full-stm32f4\adalib\\libgnat.a(s-bcprmu.o)
 .data          0x2000003a        0x0 C:\gnat\2017\arm-eabi\lib\gnat\ravenscar-full-stm32f4\adalib\\libgnat.a(s-bbtiev.o)
 .data.system__bb__timing_events_E
                0x2000003a        0x2 C:\gnat\2017\arm-eabi\lib\gnat\ravenscar-full-stm32f4\adalib\\libgnat.a(s-bbtiev.o)
                0x2000003a                system__bb__timing_events_E
 .data.system__bb__timing_events__events_table
                0x2000003c        0x4 C:\gnat\2017\arm-eabi\lib\gnat\ravenscar-full-stm32f4\adalib\\libgnat.a(s-bbtiev.o)
                0x2000003c                system__bb__timing_events__events_table
 .data.system__bb__timing_events__timing_eventH13s
                0x20000040        0x4 C:\gnat\2017\arm-eabi\lib\gnat\ravenscar-full-stm32f4\adalib\\libgnat.a(s-bbtiev.o)
                0x20000040                system__bb__timing_events__timing_eventH13s
 .data          0x20000044        0x0 C:\gnat\2017\arm-eabi\lib\gnat\ravenscar-full-stm32f4\adalib\\libgnat.a(s-bbthre.o)
 .data.system__bb__threads__initialized
                0x20000044        0x1 C:\gnat\2017\arm-eabi\lib\gnat\ravenscar-full-stm32f4\adalib\\libgnat.a(s-bbthre.o)
                0x20000044                system__bb__threads__initialized
 .data          0x20000045        0x0 C:\gnat\2017\arm-eabi\lib\gnat\ravenscar-full-stm32f4\adalib\\libgnat.a(s-bbthqu.o)
 *fill*         0x20000045        0x3 
 .data.__gnat_running_thread_table
                0x20000048        0x4 C:\gnat\2017\arm-eabi\lib\gnat\ravenscar-full-stm32f4\adalib\\libgnat.a(s-bbthqu.o)
                0x20000048                __gnat_running_thread_table
 .data.first_thread_table
                0x2000004c        0x4 C:\gnat\2017\arm-eabi\lib\gnat\ravenscar-full-stm32f4\adalib\\libgnat.a(s-bbthqu.o)
                0x2000004c                first_thread_table
 .data.system__bb__threads__queues__alarms_table
                0x20000050        0x4 C:\gnat\2017\arm-eabi\lib\gnat\ravenscar-full-stm32f4\adalib\\libgnat.a(s-bbthqu.o)
                0x20000050                system__bb__threads__queues__alarms_table
 .data.system__bb__threads__queues__global_list
                0x20000054        0x4 C:\gnat\2017\arm-eabi\lib\gnat\ravenscar-full-stm32f4\adalib\\libgnat.a(s-bbthqu.o)
                0x20000054                system__bb__threads__queues__global_list
 .data          0x20000058        0x0 C:\gnat\2017\arm-eabi\lib\gnat\ravenscar-full-stm32f4\adalib\\libgnat.a(s-bbprot.o)
 .data.system__bb__protection__wakeup_served_entry_callback
                0x20000058        0x4 C:\gnat\2017\arm-eabi\lib\gnat\ravenscar-full-stm32f4\adalib\\libgnat.a(s-bbprot.o)
                0x20000058                system__bb__protection__wakeup_served_entry_callback
 .data          0x2000005c        0x0 C:\gnat\2017\arm-eabi\lib\gnat\ravenscar-full-stm32f4\adalib\\libgnat.a(s-stalib.o)
 .data._abort_signal
                0x2000005c       0x18 C:\gnat\2017\arm-eabi\lib\gnat\ravenscar-full-stm32f4\adalib\\libgnat.a(s-stalib.o)
                0x2000005c                _abort_signal
 .data.constraint_error
                0x20000074       0x18 C:\gnat\2017\arm-eabi\lib\gnat\ravenscar-full-stm32f4\adalib\\libgnat.a(s-stalib.o)
                0x20000074                constraint_error
 .data.numeric_error
                0x2000008c       0x18 C:\gnat\2017\arm-eabi\lib\gnat\ravenscar-full-stm32f4\adalib\\libgnat.a(s-stalib.o)
                0x2000008c                numeric_error
 .data.program_error
                0x200000a4       0x18 C:\gnat\2017\arm-eabi\lib\gnat\ravenscar-full-stm32f4\adalib\\libgnat.a(s-stalib.o)
                0x200000a4                program_error
 .data.storage_error
                0x200000bc       0x18 C:\gnat\2017\arm-eabi\lib\gnat\ravenscar-full-stm32f4\adalib\\libgnat.a(s-stalib.o)
                0x200000bc                storage_error
 .data.system__standard_library_E
                0x200000d4        0x2 C:\gnat\2017\arm-eabi\lib\gnat\ravenscar-full-stm32f4\adalib\\libgnat.a(s-stalib.o)
                0x200000d4                system__standard_library_E
 .data.system__standard_library__exception_trace
                0x200000d6        0x1 C:\gnat\2017\arm-eabi\lib\gnat\ravenscar-full-stm32f4\adalib\\libgnat.a(s-stalib.o)
                0x200000d6                system__standard_library__exception_trace
 *fill*         0x200000d7        0x1 
 .data.system__standard_library__local_partition_id
                0x200000d8        0x4 C:\gnat\2017\arm-eabi\lib\gnat\ravenscar-full-stm32f4\adalib\\libgnat.a(s-stalib.o)
                0x200000d8                system__standard_library__local_partition_id
 .data.system__standard_library__runtime_finalized
                0x200000dc        0x1 C:\gnat\2017\arm-eabi\lib\gnat\ravenscar-full-stm32f4\adalib\\libgnat.a(s-stalib.o)
                0x200000dc                system__standard_library__runtime_finalized
 *fill*         0x200000dd        0x3 
 .data.tasking_error
                0x200000e0       0x18 C:\gnat\2017\arm-eabi\lib\gnat\ravenscar-full-stm32f4\adalib\\libgnat.a(s-stalib.o)
                0x200000e0                tasking_error
 .data          0x200000f8        0x0 C:\gnat\2017\arm-eabi\lib\gnat\ravenscar-full-stm32f4\adalib\\libgnat.a(s-soflin.o)
 .data.system__soft_links_E
                0x200000f8        0x2 C:\gnat\2017\arm-eabi\lib\gnat\ravenscar-full-stm32f4\adalib\\libgnat.a(s-soflin.o)
                0x200000f8                system__soft_links_E
 *fill*         0x200000fa        0x2 
 .data.system__soft_links__adafinal
                0x200000fc        0x4 C:\gnat\2017\arm-eabi\lib\gnat\ravenscar-full-stm32f4\adalib\\libgnat.a(s-soflin.o)
                0x200000fc                system__soft_links__adafinal
 .data.system__soft_links__library_exception_set
                0x20000100        0x1 C:\gnat\2017\arm-eabi\lib\gnat\ravenscar-full-stm32f4\adalib\\libgnat.a(s-soflin.o)
                0x20000100                system__soft_links__library_exception_set
 *fill*         0x20000101        0x3 
 .data.system__soft_links__lock_task
                0x20000104        0x4 C:\gnat\2017\arm-eabi\lib\gnat\ravenscar-full-stm32f4\adalib\\libgnat.a(s-soflin.o)
                0x20000104                system__soft_links__lock_task
 .data.system__soft_links__task_termination_handler
                0x20000108        0x4 C:\gnat\2017\arm-eabi\lib\gnat\ravenscar-full-stm32f4\adalib\\libgnat.a(s-soflin.o)
                0x20000108                system__soft_links__task_termination_handler
 .data.system__soft_links__traceback_decorator_wrapper
                0x2000010c        0x4 C:\gnat\2017\arm-eabi\lib\gnat\ravenscar-full-stm32f4\adalib\\libgnat.a(s-soflin.o)
                0x2000010c                system__soft_links__traceback_decorator_wrapper
 .data.system__soft_links__unlock_task
                0x20000110        0x4 C:\gnat\2017\arm-eabi\lib\gnat\ravenscar-full-stm32f4\adalib\\libgnat.a(s-soflin.o)
                0x20000110                system__soft_links__unlock_task
 .data          0x20000114        0x0 C:\gnat\2017\arm-eabi\lib\gnat\ravenscar-full-stm32f4\adalib\\libgnat.a(s-init.o)
 .data.__gl_bind_env_addr
                0x20000114        0x4 C:\gnat\2017\arm-eabi\lib\gnat\ravenscar-full-stm32f4\adalib\\libgnat.a(s-init.o)
                0x20000114                __gl_bind_env_addr
 .data.__gl_default_stack_size
                0x20000118        0x4 C:\gnat\2017\arm-eabi\lib\gnat\ravenscar-full-stm32f4\adalib\\libgnat.a(s-init.o)
                0x20000118                __gl_default_stack_size
 .data.__gl_detect_blocking
                0x2000011c        0x4 C:\gnat\2017\arm-eabi\lib\gnat\ravenscar-full-stm32f4\adalib\\libgnat.a(s-init.o)
                0x2000011c                __gl_detect_blocking
 .data.__gl_exception_tracebacks
                0x20000120        0x4 C:\gnat\2017\arm-eabi\lib\gnat\ravenscar-full-stm32f4\adalib\\libgnat.a(s-init.o)
                0x20000120                __gl_exception_tracebacks
 .data.__gl_exception_tracebacks_symbolic
                0x20000124        0x4 C:\gnat\2017\arm-eabi\lib\gnat\ravenscar-full-stm32f4\adalib\\libgnat.a(s-init.o)
                0x20000124                __gl_exception_tracebacks_symbolic
 .data.__gl_interrupt_states
                0x20000128        0x4 C:\gnat\2017\arm-eabi\lib\gnat\ravenscar-full-stm32f4\adalib\\libgnat.a(s-init.o)
                0x20000128                __gl_interrupt_states
 .data.__gl_leap_seconds_support
                0x2000012c        0x4 C:\gnat\2017\arm-eabi\lib\gnat\ravenscar-full-stm32f4\adalib\\libgnat.a(s-init.o)
                0x2000012c                __gl_leap_seconds_support
 .data.__gl_locking_policy
                0x20000130        0x1 C:\gnat\2017\arm-eabi\lib\gnat\ravenscar-full-stm32f4\adalib\\libgnat.a(s-init.o)
                0x20000130                __gl_locking_policy
 *fill*         0x20000131        0x3 
 .data.__gl_num_interrupt_states
                0x20000134        0x4 C:\gnat\2017\arm-eabi\lib\gnat\ravenscar-full-stm32f4\adalib\\libgnat.a(s-init.o)
                0x20000134                __gl_num_interrupt_states
 .data.__gl_num_specific_dispatching
                0x20000138        0x4 C:\gnat\2017\arm-eabi\lib\gnat\ravenscar-full-stm32f4\adalib\\libgnat.a(s-init.o)
                0x20000138                __gl_num_specific_dispatching
 .data.__gl_priority_specific_dispatching
                0x2000013c        0x4 C:\gnat\2017\arm-eabi\lib\gnat\ravenscar-full-stm32f4\adalib\\libgnat.a(s-init.o)
                0x2000013c                __gl_priority_specific_dispatching
 .data.__gl_queuing_policy
                0x20000140        0x1 C:\gnat\2017\arm-eabi\lib\gnat\ravenscar-full-stm32f4\adalib\\libgnat.a(s-init.o)
                0x20000140                __gl_queuing_policy
 *fill*         0x20000141        0x3 
 .data.__gl_restrictions
                0x20000144        0x4 C:\gnat\2017\arm-eabi\lib\gnat\ravenscar-full-stm32f4\adalib\\libgnat.a(s-init.o)
                0x20000144                __gl_restrictions
 .data.__gl_task_dispatching_policy
                0x20000148        0x1 C:\gnat\2017\arm-eabi\lib\gnat\ravenscar-full-stm32f4\adalib\\libgnat.a(s-init.o)
                0x20000148                __gl_task_dispatching_policy
 *fill*         0x20000149        0x3 
 .data.__gl_time_slice_val
                0x2000014c        0x4 C:\gnat\2017\arm-eabi\lib\gnat\ravenscar-full-stm32f4\adalib\\libgnat.a(s-init.o)
                0x2000014c                __gl_time_slice_val
 .data.__gl_unreserve_all_interrupts
                0x20000150        0x4 C:\gnat\2017\arm-eabi\lib\gnat\ravenscar-full-stm32f4\adalib\\libgnat.a(s-init.o)
                0x20000150                __gl_unreserve_all_interrupts
 .data.__gl_wc_encoding
                0x20000154        0x1 C:\gnat\2017\arm-eabi\lib\gnat\ravenscar-full-stm32f4\adalib\\libgnat.a(s-init.o)
                0x20000154                __gl_wc_encoding
 .data          0x20000155        0x0 C:\gnat\2017\arm-eabi\lib\gnat\ravenscar-full-stm32f4\adalib\\libgnat.a(s-exctab.o)
 *fill*         0x20000155        0x1 
 .data.system__exception_table_E
                0x20000156        0x2 C:\gnat\2017\arm-eabi\lib\gnat\ravenscar-full-stm32f4\adalib\\libgnat.a(s-exctab.o)
                0x20000156                system__exception_table_E
 .data          0x20000158        0x0 C:\gnat\2017\arm-eabi\lib\gnat\ravenscar-full-stm32f4\adalib\\libgnat.a(a-tags.o)
 .data.ada__tags_E
                0x20000158        0x2 C:\gnat\2017\arm-eabi\lib\gnat\ravenscar-full-stm32f4\adalib\\libgnat.a(a-tags.o)
                0x20000158                ada__tags_E
 *fill*         0x2000015a        0x2 
 .data.ada__tags__external_tag_htable__iterator_ptrXn
                0x2000015c        0x4 C:\gnat\2017\arm-eabi\lib\gnat\ravenscar-full-stm32f4\adalib\\libgnat.a(a-tags.o)
                0x2000015c                ada__tags__external_tag_htable__iterator_ptrXn
 .data.ada__tags__external_tag_htable__iterator_startedXn
                0x20000160        0x1 C:\gnat\2017\arm-eabi\lib\gnat\ravenscar-full-stm32f4\adalib\\libgnat.a(a-tags.o)
                0x20000160                ada__tags__external_tag_htable__iterator_startedXn
 *fill*         0x20000161        0x3 
 .data.ada__tags__tag_error
                0x20000164       0x18 C:\gnat\2017\arm-eabi\lib\gnat\ravenscar-full-stm32f4\adalib\\libgnat.a(a-tags.o)
                0x20000164                ada__tags__tag_error
 .data          0x2000017c        0x0 C:\gnat\2017\arm-eabi\lib\gnat\ravenscar-full-stm32f4\adalib\\libgnat.a(a-except.o)
 .data.ada__exceptions_E
                0x2000017c        0x2 C:\gnat\2017\arm-eabi\lib\gnat\ravenscar-full-stm32f4\adalib\\libgnat.a(a-except.o)
                0x2000017c                ada__exceptions_E
 *fill*         0x2000017e        0x2 
 .data.__gnat_exception_actions_global_action
                0x20000180        0x4 C:\gnat\2017\arm-eabi\lib\gnat\ravenscar-full-stm32f4\adalib\\libgnat.a(a-except.o)
                0x20000180                __gnat_exception_actions_global_action
 .data.__gnat_exception_actions_initialized
                0x20000184        0x1 C:\gnat\2017\arm-eabi\lib\gnat\ravenscar-full-stm32f4\adalib\\libgnat.a(a-except.o)
                0x20000184                __gnat_exception_actions_initialized
 .data          0x20000185        0x0 C:\gnat\2017\arm-eabi\lib\gnat\ravenscar-full-stm32f4\adalib\\libgnat.a(a-elchha.o)
 *fill*         0x20000185        0x1 
 .data.ada__exceptions__last_chance_handler_E
                0x20000186        0x2 C:\gnat\2017\arm-eabi\lib\gnat\ravenscar-full-stm32f4\adalib\\libgnat.a(a-elchha.o)
                0x20000186                ada__exceptions__last_chance_handler_E
 .data          0x20000188        0x0 C:\gnat\2017\arm-eabi\lib\gnat\ravenscar-full-stm32f4\adalib\\libgnat.a(s-memset.o)
 .data          0x20000188        0x0 C:\gnat\2017\arm-eabi\lib\gnat\ravenscar-full-stm32f4\adalib\\libgnat.a(s-memmov.o)
 .data          0x20000188        0x0 C:\gnat\2017\arm-eabi\lib\gnat\ravenscar-full-stm32f4\adalib\\libgnat.a(s-memcop.o)
 .data          0x20000188        0x0 C:\gnat\2017\arm-eabi\lib\gnat\ravenscar-full-stm32f4\adalib\\libgnat.a(s-memcom.o)
 .data.system__memory_compare_E
                0x20000188        0x2 C:\gnat\2017\arm-eabi\lib\gnat\ravenscar-full-stm32f4\adalib\\libgnat.a(s-memcom.o)
                0x20000188                system__memory_compare_E
 .data          0x2000018a        0x0 C:\gnat\2017\arm-eabi\lib\gnat\ravenscar-full-stm32f4\adalib\\libgnat.a(s-secsta.o)
 .data.system__secondary_stack_E
                0x2000018a        0x2 C:\gnat\2017\arm-eabi\lib\gnat\ravenscar-full-stm32f4\adalib\\libgnat.a(s-secsta.o)
                0x2000018a                system__secondary_stack_E
 .data          0x2000018c        0x0 C:\gnat\2017\arm-eabi\lib\gnat\ravenscar-full-stm32f4\adalib\\libgnat.a(s-imgint.o)
 .data.system__img_int_E
                0x2000018c        0x2 C:\gnat\2017\arm-eabi\lib\gnat\ravenscar-full-stm32f4\adalib\\libgnat.a(s-imgint.o)
                0x2000018c                system__img_int_E
 .data          0x2000018e        0x0 C:\gnat\2017\arm-eabi\lib\gnat\ravenscar-full-stm32f4\adalib\\libgnat.a(handler.o)
 .data          0x2000018e        0x0 C:\gnat\2017\arm-eabi\lib\gnat\ravenscar-full-stm32f4\adalib\\libgnat.a(breakpoint_handler.o)
 .data          0x2000018e        0x0 C:\gnat\2017\arm-eabi\lib\gnat\ravenscar-full-stm32f4\adalib\\libgnat.a(raise-gcc.o)
 .data          0x2000018e        0x0 C:\gnat\2017\arm-eabi\lib\gnat\ravenscar-full-stm32f4\adalib\\libgnat.a(adaint-xi.o)
 .data          0x2000018e        0x0 C:\gnat\2017\arm-eabi\lib\gnat\ravenscar-full-stm32f4\adalib\\libgnat.a(s-bbinte.o)
 *fill*         0x2000018e        0x2 
 .data.system__bb__interrupts__interrupt_being_handled
                0x20000190        0x4 C:\gnat\2017\arm-eabi\lib\gnat\ravenscar-full-stm32f4\adalib\\libgnat.a(s-bbinte.o)
                0x20000190                system__bb__interrupts__interrupt_being_handled
 .data          0x20000194        0x0 C:\gnat\2017\arm-eabi\lib\gnat\ravenscar-full-stm32f4\adalib\\libgnat.a(s-bbcppr.o)
 .data          0x20000194        0x0 C:\gnat\2017\arm-eabi\lib\gnat\ravenscar-full-stm32f4\adalib\\libgnat.a(s-bbbosu.o)
 .data          0x20000194        0x0 C:\gnat\2017\arm-eabi\lib\gnat\ravenscar-full-stm32f4\adalib\\libgnat.a(s-bbmcpa.o)
 .data.system__bb__mcu_parameters_E
                0x20000194        0x2 C:\gnat\2017\arm-eabi\lib\gnat\ravenscar-full-stm32f4\adalib\\libgnat.a(s-bbmcpa.o)
                0x20000194                system__bb__mcu_parameters_E
 .data          0x20000196        0x0 C:\gnat\2017\arm-eabi\lib\gnat\ravenscar-full-stm32f4\adalib\\libgnat.a(s-bbtime.o)
 *fill*         0x20000196        0x2 
 .data.system__bb__time__alarm_lock
                0x20000198        0x2 C:\gnat\2017\arm-eabi\lib\gnat\ravenscar-full-stm32f4\adalib\\libgnat.a(s-bbtime.o)
                0x20000198                system__bb__time__alarm_lock
 *fill*         0x2000019a        0x6 
 .data.system__bb__time__max_sleep
                0x200001a0        0x8 C:\gnat\2017\arm-eabi\lib\gnat\ravenscar-full-stm32f4\adalib\\libgnat.a(s-bbtime.o)
                0x200001a0                system__bb__time__max_sleep
 .data.system__bb__time__pending_alarm
                0x200001a8        0x8 C:\gnat\2017\arm-eabi\lib\gnat\ravenscar-full-stm32f4\adalib\\libgnat.a(s-bbtime.o)
                0x200001a8                system__bb__time__pending_alarm
 .data.system__bb__time__scheduling_event_hook
                0x200001b0        0x4 C:\gnat\2017\arm-eabi\lib\gnat\ravenscar-full-stm32f4\adalib\\libgnat.a(s-bbtime.o)
                0x200001b0                system__bb__time__scheduling_event_hook
 .data.system__bb__time__software_clock
                0x200001b4        0x8 C:\gnat\2017\arm-eabi\lib\gnat\ravenscar-full-stm32f4\adalib\\libgnat.a(s-bbtime.o)
                0x200001b4                system__bb__time__software_clock
 .data          0x200001bc        0x0 C:\gnat\2017\arm-eabi\lib\gnat\ravenscar-full-stm32f4\adalib\\libgnat.a(s-traceb.o)
 .data.system__traceback_E
                0x200001bc        0x2 C:\gnat\2017\arm-eabi\lib\gnat\ravenscar-full-stm32f4\adalib\\libgnat.a(s-traceb.o)
                0x200001bc                system__traceback_E
 .data          0x200001be        0x0 C:\gnat\2017\arm-eabi\lib\gnat\ravenscar-full-stm32f4\adalib\\libgnat.a(s-excmac.o)
 .data.system__exceptions__machine_E
                0x200001be        0x2 C:\gnat\2017\arm-eabi\lib\gnat\ravenscar-full-stm32f4\adalib\\libgnat.a(s-excmac.o)
                0x200001be                system__exceptions__machine_E
 .data          0x200001c0        0x0 C:\gnat\2017\arm-eabi\lib\gnat\ravenscar-full-stm32f4\adalib\\libgnat.a(s-wchstw.o)
 .data.system__wch_stw_E
                0x200001c0        0x2 C:\gnat\2017\arm-eabi\lib\gnat\ravenscar-full-stm32f4\adalib\\libgnat.a(s-wchstw.o)
                0x200001c0                system__wch_stw_E
 .data          0x200001c2        0x0 C:\gnat\2017\arm-eabi\lib\gnat\ravenscar-full-stm32f4\adalib\\libgnat.a(s-wchjis.o)
 .data.system__wch_jis_E
                0x200001c2        0x2 C:\gnat\2017\arm-eabi\lib\gnat\ravenscar-full-stm32f4\adalib\\libgnat.a(s-wchjis.o)
                0x200001c2                system__wch_jis_E
 .data          0x200001c4        0x0 C:\gnat\2017\arm-eabi\lib\gnat\ravenscar-full-stm32f4\adalib\\libgnat.a(s-wchcon.o)
 .data.system__wch_con_E
                0x200001c4        0x2 C:\gnat\2017\arm-eabi\lib\gnat\ravenscar-full-stm32f4\adalib\\libgnat.a(s-wchcon.o)
                0x200001c4                system__wch_con_E
 .data          0x200001c6        0x0 C:\gnat\2017\arm-eabi\lib\gnat\ravenscar-full-stm32f4\adalib\\libgnat.a(s-valuns.o)
 .data.system__val_uns_E
                0x200001c6        0x2 C:\gnat\2017\arm-eabi\lib\gnat\ravenscar-full-stm32f4\adalib\\libgnat.a(s-valuns.o)
                0x200001c6                system__val_uns_E
 .data          0x200001c8        0x0 C:\gnat\2017\arm-eabi\lib\gnat\ravenscar-full-stm32f4\adalib\\libgnat.a(s-traent.o)
 .data.system__traceback_entries_E
                0x200001c8        0x2 C:\gnat\2017\arm-eabi\lib\gnat\ravenscar-full-stm32f4\adalib\\libgnat.a(s-traent.o)
                0x200001c8                system__traceback_entries_E
 .data          0x200001ca        0x0 C:\gnat\2017\arm-eabi\lib\gnat\ravenscar-full-stm32f4\adalib\\libgnat.a(s-memory.o)
 .data.system__memory_E
                0x200001ca        0x2 C:\gnat\2017\arm-eabi\lib\gnat\ravenscar-full-stm32f4\adalib\\libgnat.a(s-memory.o)
                0x200001ca                system__memory_E
 .data          0x200001cc        0x0 C:\gnat\2017\arm-eabi\lib\gnat\ravenscar-full-stm32f4\adalib\\libgnat.a(s-io.o)
 .data.system__io_E
                0x200001cc        0x2 C:\gnat\2017\arm-eabi\lib\gnat\ravenscar-full-stm32f4\adalib\\libgnat.a(s-io.o)
                0x200001cc                system__io_E
 .data          0x200001ce        0x0 C:\gnat\2017\arm-eabi\lib\gnat\ravenscar-full-stm32f4\adalib\\libgnat.a(s-except.o)
 .data.system__exceptions_E
                0x200001ce        0x2 C:\gnat\2017\arm-eabi\lib\gnat\ravenscar-full-stm32f4\adalib\\libgnat.a(s-except.o)
                0x200001ce                system__exceptions_E
 .data.system__exceptions__foreign_exception
                0x200001d0       0x18 C:\gnat\2017\arm-eabi\lib\gnat\ravenscar-full-stm32f4\adalib\\libgnat.a(s-except.o)
                0x200001d0                system__exceptions__foreign_exception
 .data          0x200001e8        0x0 C:\gnat\2017\arm-eabi\lib\gnat\ravenscar-full-stm32f4\adalib\\libgnat.a(s-excdeb.o)
 .data.system__exceptions_debug_E
                0x200001e8        0x2 C:\gnat\2017\arm-eabi\lib\gnat\ravenscar-full-stm32f4\adalib\\libgnat.a(s-excdeb.o)
                0x200001e8                system__exceptions_debug_E
 .data          0x200001ea        0x0 C:\gnat\2017\arm-eabi\lib\gnat\ravenscar-full-stm32f4\adalib\\libgnat.a(g-debuti.o)
 .data.gnat__debug_utilities_E
                0x200001ea        0x2 C:\gnat\2017\arm-eabi\lib\gnat\ravenscar-full-stm32f4\adalib\\libgnat.a(g-debuti.o)
                0x200001ea                gnat__debug_utilities_E
 .data          0x200001ec        0x0 C:\gnat\2017\arm-eabi\lib\gnat\ravenscar-full-stm32f4\adalib\\libgnat.a(s-textio.o)
 .data.system__text_io_E
                0x200001ec        0x2 C:\gnat\2017\arm-eabi\lib\gnat\ravenscar-full-stm32f4\adalib\\libgnat.a(s-textio.o)
                0x200001ec                system__text_io_E
 .data.system__text_io__initialized
                0x200001ee        0x1 C:\gnat\2017\arm-eabi\lib\gnat\ravenscar-full-stm32f4\adalib\\libgnat.a(s-textio.o)
                0x200001ee                system__text_io__initialized
 .data          0x200001ef        0x0 C:\gnat\2017\arm-eabi\lib\gnat\ravenscar-full-stm32f4\adalib\\libgnat.a(s-semiho.o)
 *fill*         0x200001ef        0x1 
 .data.system__semihosting_E
                0x200001f0        0x2 C:\gnat\2017\arm-eabi\lib\gnat\ravenscar-full-stm32f4\adalib\\libgnat.a(s-semiho.o)
                0x200001f0                system__semihosting_E
 .data          0x200001f2        0x0 C:\gnat\2017\arm-eabi\lib\gnat\ravenscar-full-stm32f4\adalib\\libgnat.a(s-valuti.o)
 .data.system__val_util_E
                0x200001f2        0x2 C:\gnat\2017\arm-eabi\lib\gnat\ravenscar-full-stm32f4\adalib\\libgnat.a(s-valuti.o)
                0x200001f2                system__val_util_E
 .data          0x200001f4        0x0 C:\gnat\2017\arm-eabi\lib\gnat\ravenscar-full-stm32f4\adalib\\libgnat.a(s-casuti.o)
 .data.system__case_util_E
                0x200001f4        0x2 C:\gnat\2017\arm-eabi\lib\gnat\ravenscar-full-stm32f4\adalib\\libgnat.a(s-casuti.o)
                0x200001f4                system__case_util_E
 .data          0x200001f6        0x0 c:/gnat/2017/bin/../lib/gcc/arm-eabi/6.3.1/../../../../arm-eabi/lib/armv7em/thumb/fpu/fpv4-sp-d16\libc.a(lib_a-malloc.o)
 *fill*         0x200001f6        0x2 
 .data          0x200001f8      0x410 c:/gnat/2017/bin/../lib/gcc/arm-eabi/6.3.1/../../../../arm-eabi/lib/armv7em/thumb/fpu/fpv4-sp-d16\libc.a(lib_a-mallocr.o)
                0x200001f8                __malloc_av_
                0x20000600                __malloc_sbrk_base
                0x20000604                __malloc_trim_threshold
 .data          0x20000608        0x0 c:/gnat/2017/bin/../lib/gcc/arm-eabi/6.3.1/../../../../arm-eabi/lib/armv7em/thumb/fpu/fpv4-sp-d16\libc.a(lib_a-mlock.o)
 .data          0x20000608        0x0 c:/gnat/2017/bin/../lib/gcc/arm-eabi/6.3.1/../../../../arm-eabi/lib/armv7em/thumb/fpu/fpv4-sp-d16\libc.a(lib_a-realloc.o)
 .data          0x20000608        0x0 c:/gnat/2017/bin/../lib/gcc/arm-eabi/6.3.1/../../../../arm-eabi/lib/armv7em/thumb/fpu/fpv4-sp-d16\libc.a(lib_a-reallocr.o)
 .data          0x20000608        0x0 c:/gnat/2017/bin/../lib/gcc/arm-eabi/6.3.1/../../../../arm-eabi/lib/armv7em/thumb/fpu/fpv4-sp-d16\libc.a(lib_a-sbrkr.o)
 .data          0x20000608        0x0 c:/gnat/2017/bin/../lib/gcc/arm-eabi/6.3.1/../../../../arm-eabi/lib/armv7em/thumb/fpu/fpv4-sp-d16\libc.a(lib_a-freer.o)
 .data          0x20000608      0x430 c:/gnat/2017/bin/../lib/gcc/arm-eabi/6.3.1/../../../../arm-eabi/lib/armv7em/thumb/fpu/fpv4-sp-d16\libc.a(lib_a-impure.o)
                0x20000608                _impure_ptr
 .data          0x20000a38        0x0 c:/gnat/2017/bin/../lib/gcc/arm-eabi/6.3.1/../../../../arm-eabi/lib/armv7em/thumb/fpu/fpv4-sp-d16\libc.a(lib_a-reent.o)
 .data          0x20000a38        0x0 C:\gnat\2017\arm-eabi\lib\gnat\ravenscar-full-stm32f4\adalib\\libgnat.a(newlib-bb.o)
 .data.heap_ptr.5676
                0x20000a38        0x4 C:\gnat\2017\arm-eabi\lib\gnat\ravenscar-full-stm32f4\adalib\\libgnat.a(newlib-bb.o)
 .data          0x20000a3c        0x0 c:/gnat/2017/bin/../lib/gcc/arm-eabi/6.3.1/armv7em/thumb/fpu/fpv4-sp-d16\libgcc.a(unwind-arm.o)
 .data          0x20000a3c        0x0 c:/gnat/2017/bin/../lib/gcc/arm-eabi/6.3.1/armv7em/thumb/fpu/fpv4-sp-d16\libgcc.a(libunwind.o)
 .data          0x20000a3c        0x0 c:/gnat/2017/bin/../lib/gcc/arm-eabi/6.3.1/armv7em/thumb/fpu/fpv4-sp-d16\libgcc.a(pr-support.o)
 .data          0x20000a3c        0x0 c:/gnat/2017/bin/../lib/gcc/arm-eabi/6.3.1/../../../../arm-eabi/lib/armv7em/thumb/fpu/fpv4-sp-d16\libc.a(lib_a-errno.o)
                0x20000a3c                . = ALIGN (0x4)
                0x20000a3c                __data_end = .
                0x0000028f                __data_words = ((__data_end - __data_start) >> 0x2)
                0x0800c5f4                __ccmdata_load = (__rom_end + (__data_words << 0x2))

.igot.plt       0x20000a3c        0x0 load address 0x0800c5f4
 .igot.plt      0x20000a3c        0x0 project_main.o

.ccmdata        0x10000000        0x0 load address 0x0800c5f4
                0x10000000                __ccmdata_start = .
 *(.ccmdata .ccmdata.*)
                0x10000000                . = ALIGN (0x4)
                0x10000000                __ccmdata_end = .
                0x00000000                __ccmdata_words = ((__ccmdata_end - __ccmdata_start) >> 0x2)

.bss            0x20000a40     0x5208 load address 0x0800c5f8
                0x20000a40                . = ALIGN (0x8)
                0x20000a40                __bss_start = .
 *(.bss .bss.*)
 .bss           0x20000a40        0x0 project_main.o
 .bss           0x20000a40        0x0 b__project_main.o
 .bss           0x20000a40        0x0 C:\Users\simon\OneDrive\Documents\STM32\System Project\obj\constants.o
 .bss           0x20000a40        0x0 C:\Users\simon\OneDrive\Documents\STM32\System Project\obj\failure_types.o
 .bss           0x20000a40        0x0 C:\Users\simon\OneDrive\Documents\STM32\System Project\obj\failure_log.o
 .bss           0x20000a40        0x0 C:\Users\simon\OneDrive\Documents\STM32\System Project\obj\first_phase.o
 .bss           0x20000a40        0x0 C:\Users\simon\OneDrive\Documents\STM32\System Project\obj\registers.o
 .bss           0x20000a40        0x0 C:\Users\simon\OneDrive\Documents\STM32\System Project\obj\signals.o
 .bss           0x20000a40        0x0 C:\Users\simon\OneDrive\Documents\STM32\System Project\obj\signal_register_database.o
 .bss           0x20000a40        0x0 C:\Users\simon\OneDrive\Documents\STM32\System Project\obj\main_system_checks.o
 .bss           0x20000a40        0x0 C:\gnat\2017\arm-eabi\lib\gnat\ravenscar-full-stm32f4\adalib\\libgnat.a(start-rom.o)
 .bss           0x20000a40        0x0 C:\gnat\2017\arm-eabi\lib\gnat\ravenscar-full-stm32f4\adalib\\libgnat.a(start-common.o)
 .bss           0x20000a40        0x0 C:\gnat\2017\arm-eabi\lib\gnat\ravenscar-full-stm32f4\adalib\\libgnat.a(setup_pll.o)
 .bss           0x20000a40        0x0 C:\gnat\2017\arm-eabi\lib\gnat\ravenscar-full-stm32f4\adalib\\libgnat.a(s-macres.o)
 .bss           0x20000a40        0x0 C:\gnat\2017\arm-eabi\lib\gnat\ravenscar-full-stm32f4\adalib\\libgnat.a(s-taskin.o)
 .bss.system__tasking__environment_task
                0x20000a40      0x270 C:\gnat\2017\arm-eabi\lib\gnat\ravenscar-full-stm32f4\adalib\\libgnat.a(s-taskin.o)
 .bss.system__tasking__secondary_stack
                0x20000cb0     0x2800 C:\gnat\2017\arm-eabi\lib\gnat\ravenscar-full-stm32f4\adalib\\libgnat.a(s-taskin.o)
 .bss           0x200034b0        0x0 C:\gnat\2017\arm-eabi\lib\gnat\ravenscar-full-stm32f4\adalib\\libgnat.a(s-tasdeb.o)
 .bss           0x200034b0        0x0 C:\gnat\2017\arm-eabi\lib\gnat\ravenscar-full-stm32f4\adalib\\libgnat.a(s-taprop.o)
 .bss.__gnat_idle_stack_table
                0x200034b0        0x4 C:\gnat\2017\arm-eabi\lib\gnat\ravenscar-full-stm32f4\adalib\\libgnat.a(s-taprop.o)
                0x200034b0                __gnat_idle_stack_table
 *fill*         0x200034b4        0x4 
 .bss.system__task_primitives__operations__idle_stacks
                0x200034b8      0x800 C:\gnat\2017\arm-eabi\lib\gnat\ravenscar-full-stm32f4\adalib\\libgnat.a(s-taprop.o)
                0x200034b8                system__task_primitives__operations__idle_stacks
 .bss.system__task_primitives__operations__idle_tasks
                0x20003cb8      0x270 C:\gnat\2017\arm-eabi\lib\gnat\ravenscar-full-stm32f4\adalib\\libgnat.a(s-taprop.o)
                0x20003cb8                system__task_primitives__operations__idle_tasks
 .bss           0x20003f28        0x0 C:\gnat\2017\arm-eabi\lib\gnat\ravenscar-full-stm32f4\adalib\\libgnat.a(s-parame.o)
 .bss           0x20003f28        0x0 C:\gnat\2017\arm-eabi\lib\gnat\ravenscar-full-stm32f4\adalib\\libgnat.a(s-bcprmu.o)
 .bss           0x20003f28        0x0 C:\gnat\2017\arm-eabi\lib\gnat\ravenscar-full-stm32f4\adalib\\libgnat.a(s-bbtiev.o)
 .bss           0x20003f28        0x0 C:\gnat\2017\arm-eabi\lib\gnat\ravenscar-full-stm32f4\adalib\\libgnat.a(s-bbthre.o)
 .bss           0x20003f28        0x0 C:\gnat\2017\arm-eabi\lib\gnat\ravenscar-full-stm32f4\adalib\\libgnat.a(s-bbthqu.o)
 .bss           0x20003f28        0x0 C:\gnat\2017\arm-eabi\lib\gnat\ravenscar-full-stm32f4\adalib\\libgnat.a(s-bbprot.o)
 .bss           0x20003f28        0x0 C:\gnat\2017\arm-eabi\lib\gnat\ravenscar-full-stm32f4\adalib\\libgnat.a(s-stalib.o)
 .bss           0x20003f28        0x0 C:\gnat\2017\arm-eabi\lib\gnat\ravenscar-full-stm32f4\adalib\\libgnat.a(s-soflin.o)
 .bss.system__soft_links__caller_priority
                0x20003f28        0x4 C:\gnat\2017\arm-eabi\lib\gnat\ravenscar-full-stm32f4\adalib\\libgnat.a(s-soflin.o)
                0x20003f28                system__soft_links__caller_priority
 .bss.system__soft_links__library_exception
                0x20003f2c      0x1a8 C:\gnat\2017\arm-eabi\lib\gnat\ravenscar-full-stm32f4\adalib\\libgnat.a(s-soflin.o)
                0x20003f2c                system__soft_links__library_exception
 .bss           0x200040d4        0x0 C:\gnat\2017\arm-eabi\lib\gnat\ravenscar-full-stm32f4\adalib\\libgnat.a(s-init.o)
 .bss           0x200040d4        0x0 C:\gnat\2017\arm-eabi\lib\gnat\ravenscar-full-stm32f4\adalib\\libgnat.a(s-exctab.o)
 .bss.system__exception_table__htable
                0x200040d4       0x94 C:\gnat\2017\arm-eabi\lib\gnat\ravenscar-full-stm32f4\adalib\\libgnat.a(s-exctab.o)
                0x200040d4                system__exception_table__htable
 .bss           0x20004168        0x0 C:\gnat\2017\arm-eabi\lib\gnat\ravenscar-full-stm32f4\adalib\\libgnat.a(a-tags.o)
 .bss.ada__tags__external_tag_htable__iterator_indexXn
                0x20004168        0x1 C:\gnat\2017\arm-eabi\lib\gnat\ravenscar-full-stm32f4\adalib\\libgnat.a(a-tags.o)
                0x20004168                ada__tags__external_tag_htable__iterator_indexXn
 *fill*         0x20004169        0x3 
 .bss.ada__tags__external_tag_htable__tableXn
                0x2000416c      0x100 C:\gnat\2017\arm-eabi\lib\gnat\ravenscar-full-stm32f4\adalib\\libgnat.a(a-tags.o)
                0x2000416c                ada__tags__external_tag_htable__tableXn
 .bss           0x2000426c        0x0 C:\gnat\2017\arm-eabi\lib\gnat\ravenscar-full-stm32f4\adalib\\libgnat.a(a-except.o)
 .bss           0x2000426c        0x0 C:\gnat\2017\arm-eabi\lib\gnat\ravenscar-full-stm32f4\adalib\\libgnat.a(a-elchha.o)
 .bss           0x2000426c        0x0 C:\gnat\2017\arm-eabi\lib\gnat\ravenscar-full-stm32f4\adalib\\libgnat.a(s-memset.o)
 .bss           0x2000426c        0x0 C:\gnat\2017\arm-eabi\lib\gnat\ravenscar-full-stm32f4\adalib\\libgnat.a(s-memmov.o)
 .bss           0x2000426c        0x0 C:\gnat\2017\arm-eabi\lib\gnat\ravenscar-full-stm32f4\adalib\\libgnat.a(s-memcop.o)
 .bss           0x2000426c        0x0 C:\gnat\2017\arm-eabi\lib\gnat\ravenscar-full-stm32f4\adalib\\libgnat.a(s-memcom.o)
 .bss           0x2000426c        0x0 C:\gnat\2017\arm-eabi\lib\gnat\ravenscar-full-stm32f4\adalib\\libgnat.a(s-secsta.o)
 .bss.system__secondary_stack__ss_pool
                0x2000426c        0x4 C:\gnat\2017\arm-eabi\lib\gnat\ravenscar-full-stm32f4\adalib\\libgnat.a(s-secsta.o)
                0x2000426c                system__secondary_stack__ss_pool
 .bss           0x20004270        0x0 C:\gnat\2017\arm-eabi\lib\gnat\ravenscar-full-stm32f4\adalib\\libgnat.a(s-imgint.o)
 .bss           0x20004270        0x0 C:\gnat\2017\arm-eabi\lib\gnat\ravenscar-full-stm32f4\adalib\\libgnat.a(handler.o)
 .bss           0x20004270        0x0 C:\gnat\2017\arm-eabi\lib\gnat\ravenscar-full-stm32f4\adalib\\libgnat.a(breakpoint_handler.o)
 .bss           0x20004270        0x0 C:\gnat\2017\arm-eabi\lib\gnat\ravenscar-full-stm32f4\adalib\\libgnat.a(raise-gcc.o)
 .bss           0x20004270        0x0 C:\gnat\2017\arm-eabi\lib\gnat\ravenscar-full-stm32f4\adalib\\libgnat.a(adaint-xi.o)
 .bss           0x20004270        0x0 C:\gnat\2017\arm-eabi\lib\gnat\ravenscar-full-stm32f4\adalib\\libgnat.a(s-bbinte.o)
 .bss.interrupt_stack_table
                0x20004270        0x4 C:\gnat\2017\arm-eabi\lib\gnat\ravenscar-full-stm32f4\adalib\\libgnat.a(s-bbinte.o)
                0x20004270                interrupt_stack_table
 .bss.system__bb__interrupts__interrupt_handlers_table
                0x20004274      0x14c C:\gnat\2017\arm-eabi\lib\gnat\ravenscar-full-stm32f4\adalib\\libgnat.a(s-bbinte.o)
                0x20004274                system__bb__interrupts__interrupt_handlers_table
 .bss           0x200043c0        0x0 C:\gnat\2017\arm-eabi\lib\gnat\ravenscar-full-stm32f4\adalib\\libgnat.a(s-bbcppr.o)
 .bss.__gnat_bb_exception_handlers
                0x200043c0       0x44 C:\gnat\2017\arm-eabi\lib\gnat\ravenscar-full-stm32f4\adalib\\libgnat.a(s-bbcppr.o)
                0x200043c0                __gnat_bb_exception_handlers
 .bss           0x20004404        0x0 C:\gnat\2017\arm-eabi\lib\gnat\ravenscar-full-stm32f4\adalib\\libgnat.a(s-bbbosu.o)
 .bss.__gnat_alarm_time
                0x20004404        0x4 C:\gnat\2017\arm-eabi\lib\gnat\ravenscar-full-stm32f4\adalib\\libgnat.a(s-bbbosu.o)
                0x20004404                __gnat_alarm_time
 .bss.system__bb__board_support__next_tick_time
                0x20004408        0x4 C:\gnat\2017\arm-eabi\lib\gnat\ravenscar-full-stm32f4\adalib\\libgnat.a(s-bbbosu.o)
                0x20004408                system__bb__board_support__next_tick_time
 .bss           0x2000440c        0x0 C:\gnat\2017\arm-eabi\lib\gnat\ravenscar-full-stm32f4\adalib\\libgnat.a(s-bbmcpa.o)
 .bss           0x2000440c        0x0 C:\gnat\2017\arm-eabi\lib\gnat\ravenscar-full-stm32f4\adalib\\libgnat.a(s-bbtime.o)
 .bss           0x2000440c        0x0 C:\gnat\2017\arm-eabi\lib\gnat\ravenscar-full-stm32f4\adalib\\libgnat.a(s-traceb.o)
 .bss           0x2000440c        0x0 C:\gnat\2017\arm-eabi\lib\gnat\ravenscar-full-stm32f4\adalib\\libgnat.a(s-excmac.o)
 .bss           0x2000440c        0x0 C:\gnat\2017\arm-eabi\lib\gnat\ravenscar-full-stm32f4\adalib\\libgnat.a(s-wchstw.o)
 .bss           0x2000440c        0x0 C:\gnat\2017\arm-eabi\lib\gnat\ravenscar-full-stm32f4\adalib\\libgnat.a(s-wchjis.o)
 .bss           0x2000440c        0x0 C:\gnat\2017\arm-eabi\lib\gnat\ravenscar-full-stm32f4\adalib\\libgnat.a(s-wchcon.o)
 .bss           0x2000440c        0x0 C:\gnat\2017\arm-eabi\lib\gnat\ravenscar-full-stm32f4\adalib\\libgnat.a(s-valuns.o)
 .bss           0x2000440c        0x0 C:\gnat\2017\arm-eabi\lib\gnat\ravenscar-full-stm32f4\adalib\\libgnat.a(s-traent.o)
 .bss           0x2000440c        0x0 C:\gnat\2017\arm-eabi\lib\gnat\ravenscar-full-stm32f4\adalib\\libgnat.a(s-memory.o)
 .bss           0x2000440c        0x0 C:\gnat\2017\arm-eabi\lib\gnat\ravenscar-full-stm32f4\adalib\\libgnat.a(s-io.o)
 .bss           0x2000440c        0x0 C:\gnat\2017\arm-eabi\lib\gnat\ravenscar-full-stm32f4\adalib\\libgnat.a(s-except.o)
 .bss           0x2000440c        0x0 C:\gnat\2017\arm-eabi\lib\gnat\ravenscar-full-stm32f4\adalib\\libgnat.a(s-excdeb.o)
 .bss           0x2000440c        0x0 C:\gnat\2017\arm-eabi\lib\gnat\ravenscar-full-stm32f4\adalib\\libgnat.a(g-debuti.o)
 .bss           0x2000440c        0x0 C:\gnat\2017\arm-eabi\lib\gnat\ravenscar-full-stm32f4\adalib\\libgnat.a(s-textio.o)
 .bss           0x2000440c        0x0 C:\gnat\2017\arm-eabi\lib\gnat\ravenscar-full-stm32f4\adalib\\libgnat.a(s-semiho.o)
 .bss           0x2000440c        0x0 C:\gnat\2017\arm-eabi\lib\gnat\ravenscar-full-stm32f4\adalib\\libgnat.a(s-valuti.o)
 .bss           0x2000440c        0x0 C:\gnat\2017\arm-eabi\lib\gnat\ravenscar-full-stm32f4\adalib\\libgnat.a(s-casuti.o)
 .bss           0x2000440c        0x0 c:/gnat/2017/bin/../lib/gcc/arm-eabi/6.3.1/../../../../arm-eabi/lib/armv7em/thumb/fpu/fpv4-sp-d16\libc.a(lib_a-malloc.o)
 .bss           0x2000440c       0x34 c:/gnat/2017/bin/../lib/gcc/arm-eabi/6.3.1/../../../../arm-eabi/lib/armv7em/thumb/fpu/fpv4-sp-d16\libc.a(lib_a-mallocr.o)
                0x2000440c                __malloc_top_pad
                0x20004410                __malloc_current_mallinfo
                0x20004438                __malloc_max_sbrked_mem
                0x2000443c                __malloc_max_total_mem
 .bss           0x20004440        0x0 c:/gnat/2017/bin/../lib/gcc/arm-eabi/6.3.1/../../../../arm-eabi/lib/armv7em/thumb/fpu/fpv4-sp-d16\libc.a(lib_a-mlock.o)
 .bss           0x20004440        0x0 c:/gnat/2017/bin/../lib/gcc/arm-eabi/6.3.1/../../../../arm-eabi/lib/armv7em/thumb/fpu/fpv4-sp-d16\libc.a(lib_a-realloc.o)
 .bss           0x20004440        0x0 c:/gnat/2017/bin/../lib/gcc/arm-eabi/6.3.1/../../../../arm-eabi/lib/armv7em/thumb/fpu/fpv4-sp-d16\libc.a(lib_a-reallocr.o)
 .bss           0x20004440        0x0 c:/gnat/2017/bin/../lib/gcc/arm-eabi/6.3.1/../../../../arm-eabi/lib/armv7em/thumb/fpu/fpv4-sp-d16\libc.a(lib_a-sbrkr.o)
 .bss           0x20004440        0x0 c:/gnat/2017/bin/../lib/gcc/arm-eabi/6.3.1/../../../../arm-eabi/lib/armv7em/thumb/fpu/fpv4-sp-d16\libc.a(lib_a-freer.o)
 .bss           0x20004440        0x0 c:/gnat/2017/bin/../lib/gcc/arm-eabi/6.3.1/../../../../arm-eabi/lib/armv7em/thumb/fpu/fpv4-sp-d16\libc.a(lib_a-impure.o)
 .bss           0x20004440        0x0 c:/gnat/2017/bin/../lib/gcc/arm-eabi/6.3.1/../../../../arm-eabi/lib/armv7em/thumb/fpu/fpv4-sp-d16\libc.a(lib_a-reent.o)
 .bss           0x20004440        0x0 C:\gnat\2017\arm-eabi\lib\gnat\ravenscar-full-stm32f4\adalib\\libgnat.a(newlib-bb.o)
 .bss           0x20004440        0x0 c:/gnat/2017/bin/../lib/gcc/arm-eabi/6.3.1/armv7em/thumb/fpu/fpv4-sp-d16\libgcc.a(unwind-arm.o)
 .bss           0x20004440        0x0 c:/gnat/2017/bin/../lib/gcc/arm-eabi/6.3.1/armv7em/thumb/fpu/fpv4-sp-d16\libgcc.a(libunwind.o)
 .bss           0x20004440        0x0 c:/gnat/2017/bin/../lib/gcc/arm-eabi/6.3.1/armv7em/thumb/fpu/fpv4-sp-d16\libgcc.a(pr-support.o)
 .bss           0x20004440        0x0 c:/gnat/2017/bin/../lib/gcc/arm-eabi/6.3.1/../../../../arm-eabi/lib/armv7em/thumb/fpu/fpv4-sp-d16\libc.a(lib_a-errno.o)
 *(COMMON)
 COMMON         0x20004440        0x4 c:/gnat/2017/bin/../lib/gcc/arm-eabi/6.3.1/../../../../arm-eabi/lib/armv7em/thumb/fpu/fpv4-sp-d16\libc.a(lib_a-reent.o)
                0x20004440                errno
                0x20004448                . = ALIGN (0x8)
 *fill*         0x20004444        0x4 
                0x20004448                __bss_end = .
                0x20004448                __interrupt_stack_start = .
 *(.interrupt_stacks)
 .interrupt_stacks
                0x20004448      0x800 C:\gnat\2017\arm-eabi\lib\gnat\ravenscar-full-stm32f4\adalib\\libgnat.a(s-bbinte.o)
                0x20004448                system__bb__interrupts__interrupt_stacks
                0x20004c48                . = ALIGN (0x8)
                0x20004c48                __interrupt_stack_end = .
                0x20004c48                __stack_start = .
                0x20005c48                . = (. + DEFINED (__stack_size)?__stack_size:_DEFAULT_STACK_SIZE)
 *fill*         0x20004c48     0x1000 
                0x20005c48                . = ALIGN (0x8)
                0x20005c48                __stack_end = .
                0x20005c48                _end = .
                0x20005c48                __heap_start = .
                0x20020000                __heap_end = (ORIGIN (sram_bs) + LENGTH (sram_bs))
                0x00000e82                __bss_words = ((__bss_end - __bss_start) >> 0x2)

.debug
 *(.debug)

.line
 *(.line)

.debug_srcinfo
 *(.debug_srcinfo)

.debug_sfnames
 *(.debug_sfnames)

.debug_aranges  0x00000000      0x910
 *(.debug_aranges)
 .debug_aranges
                0x00000000       0x20 project_main.o
 .debug_aranges
                0x00000020       0x20 b__project_main.o
 .debug_aranges
                0x00000040       0x18 C:\Users\simon\OneDrive\Documents\STM32\System Project\obj\constants.o
 .debug_aranges
                0x00000058       0x18 C:\Users\simon\OneDrive\Documents\STM32\System Project\obj\failure_types.o
 .debug_aranges
                0x00000070       0x20 C:\Users\simon\OneDrive\Documents\STM32\System Project\obj\failure_log.o
 .debug_aranges
                0x00000090       0x20 C:\Users\simon\OneDrive\Documents\STM32\System Project\obj\first_phase.o
 .debug_aranges
                0x000000b0       0x18 C:\Users\simon\OneDrive\Documents\STM32\System Project\obj\registers.o
 .debug_aranges
                0x000000c8       0x18 C:\Users\simon\OneDrive\Documents\STM32\System Project\obj\signals.o
 .debug_aranges
                0x000000e0       0x18 C:\Users\simon\OneDrive\Documents\STM32\System Project\obj\signal_register_database.o
 .debug_aranges
                0x000000f8       0x20 C:\Users\simon\OneDrive\Documents\STM32\System Project\obj\main_system_checks.o
 .debug_aranges
                0x00000118       0x20 C:\gnat\2017\arm-eabi\lib\gnat\ravenscar-full-stm32f4\adalib\\libgnat.a(s-tasdeb.o)
 .debug_aranges
                0x00000138      0x178 C:\gnat\2017\arm-eabi\lib\gnat\ravenscar-full-stm32f4\adalib\\libgnat.a(a-tags.o)
 .debug_aranges
                0x000002b0      0x468 C:\gnat\2017\arm-eabi\lib\gnat\ravenscar-full-stm32f4\adalib\\libgnat.a(a-except.o)
 .debug_aranges
                0x00000718       0x28 C:\gnat\2017\arm-eabi\lib\gnat\ravenscar-full-stm32f4\adalib\\libgnat.a(s-traceb.o)
 .debug_aranges
                0x00000740       0x38 C:\gnat\2017\arm-eabi\lib\gnat\ravenscar-full-stm32f4\adalib\\libgnat.a(s-excdeb.o)
 .debug_aranges
                0x00000778       0x20 c:/gnat/2017/bin/../lib/gcc/arm-eabi/6.3.1/../../../../arm-eabi/lib/armv7em/thumb/fpu/fpv4-sp-d16\libc.a(lib_a-malloc.o)
 .debug_aranges
                0x00000798       0x20 c:/gnat/2017/bin/../lib/gcc/arm-eabi/6.3.1/../../../../arm-eabi/lib/armv7em/thumb/fpu/fpv4-sp-d16\libc.a(lib_a-mallocr.o)
 .debug_aranges
                0x000007b8       0x20 c:/gnat/2017/bin/../lib/gcc/arm-eabi/6.3.1/../../../../arm-eabi/lib/armv7em/thumb/fpu/fpv4-sp-d16\libc.a(lib_a-mlock.o)
 .debug_aranges
                0x000007d8       0x20 c:/gnat/2017/bin/../lib/gcc/arm-eabi/6.3.1/../../../../arm-eabi/lib/armv7em/thumb/fpu/fpv4-sp-d16\libc.a(lib_a-realloc.o)
 .debug_aranges
                0x000007f8       0x20 c:/gnat/2017/bin/../lib/gcc/arm-eabi/6.3.1/../../../../arm-eabi/lib/armv7em/thumb/fpu/fpv4-sp-d16\libc.a(lib_a-reallocr.o)
 .debug_aranges
                0x00000818       0x20 c:/gnat/2017/bin/../lib/gcc/arm-eabi/6.3.1/../../../../arm-eabi/lib/armv7em/thumb/fpu/fpv4-sp-d16\libc.a(lib_a-sbrkr.o)
 .debug_aranges
                0x00000838       0x20 c:/gnat/2017/bin/../lib/gcc/arm-eabi/6.3.1/../../../../arm-eabi/lib/armv7em/thumb/fpu/fpv4-sp-d16\libc.a(lib_a-freer.o)
 .debug_aranges
                0x00000858       0x18 c:/gnat/2017/bin/../lib/gcc/arm-eabi/6.3.1/../../../../arm-eabi/lib/armv7em/thumb/fpu/fpv4-sp-d16\libc.a(lib_a-impure.o)
 .debug_aranges
                0x00000870       0x20 c:/gnat/2017/bin/../lib/gcc/arm-eabi/6.3.1/../../../../arm-eabi/lib/armv7em/thumb/fpu/fpv4-sp-d16\libc.a(lib_a-reent.o)
 .debug_aranges
                0x00000890       0x20 c:/gnat/2017/bin/../lib/gcc/arm-eabi/6.3.1/armv7em/thumb/fpu/fpv4-sp-d16\libgcc.a(unwind-arm.o)
 .debug_aranges
                0x000008b0       0x20 c:/gnat/2017/bin/../lib/gcc/arm-eabi/6.3.1/armv7em/thumb/fpu/fpv4-sp-d16\libgcc.a(libunwind.o)
 .debug_aranges
                0x000008d0       0x20 c:/gnat/2017/bin/../lib/gcc/arm-eabi/6.3.1/armv7em/thumb/fpu/fpv4-sp-d16\libgcc.a(pr-support.o)
 .debug_aranges
                0x000008f0       0x20 c:/gnat/2017/bin/../lib/gcc/arm-eabi/6.3.1/../../../../arm-eabi/lib/armv7em/thumb/fpu/fpv4-sp-d16\libc.a(lib_a-errno.o)

.debug_pubnames
 *(.debug_pubnames)

.debug_info     0x00000000    0x1318d
 *(.debug_info .gnu.linkonce.wi.*)
 .debug_info    0x00000000       0x51 project_main.o
 .debug_info    0x00000051      0x1ad b__project_main.o
 .debug_info    0x000001fe       0x2f C:\Users\simon\OneDrive\Documents\STM32\System Project\obj\constants.o
 .debug_info    0x0000022d      0x154 C:\Users\simon\OneDrive\Documents\STM32\System Project\obj\failure_types.o
 .debug_info    0x00000381       0xa7 C:\Users\simon\OneDrive\Documents\STM32\System Project\obj\failure_log.o
 .debug_info    0x00000428       0x74 C:\Users\simon\OneDrive\Documents\STM32\System Project\obj\first_phase.o
 .debug_info    0x0000049c       0x36 C:\Users\simon\OneDrive\Documents\STM32\System Project\obj\registers.o
 .debug_info    0x000004d2       0x36 C:\Users\simon\OneDrive\Documents\STM32\System Project\obj\signals.o
 .debug_info    0x00000508      0x2d0 C:\Users\simon\OneDrive\Documents\STM32\System Project\obj\signal_register_database.o
 .debug_info    0x000007d8      0x1ba C:\Users\simon\OneDrive\Documents\STM32\System Project\obj\main_system_checks.o
 .debug_info    0x00000992      0x6f1 C:\gnat\2017\arm-eabi\lib\gnat\ravenscar-full-stm32f4\adalib\\libgnat.a(s-tasdeb.o)
 .debug_info    0x00001083     0x3219 C:\gnat\2017\arm-eabi\lib\gnat\ravenscar-full-stm32f4\adalib\\libgnat.a(a-tags.o)
 .debug_info    0x0000429c     0x5aa4 C:\gnat\2017\arm-eabi\lib\gnat\ravenscar-full-stm32f4\adalib\\libgnat.a(a-except.o)
 .debug_info    0x00009d40      0x38d C:\gnat\2017\arm-eabi\lib\gnat\ravenscar-full-stm32f4\adalib\\libgnat.a(s-traceb.o)
 .debug_info    0x0000a0cd      0x206 C:\gnat\2017\arm-eabi\lib\gnat\ravenscar-full-stm32f4\adalib\\libgnat.a(s-excdeb.o)
 .debug_info    0x0000a2d3      0x922 c:/gnat/2017/bin/../lib/gcc/arm-eabi/6.3.1/../../../../arm-eabi/lib/armv7em/thumb/fpu/fpv4-sp-d16\libc.a(lib_a-malloc.o)
 .debug_info    0x0000abf5      0xdf1 c:/gnat/2017/bin/../lib/gcc/arm-eabi/6.3.1/../../../../arm-eabi/lib/armv7em/thumb/fpu/fpv4-sp-d16\libc.a(lib_a-mallocr.o)
 .debug_info    0x0000b9e6      0x8d8 c:/gnat/2017/bin/../lib/gcc/arm-eabi/6.3.1/../../../../arm-eabi/lib/armv7em/thumb/fpu/fpv4-sp-d16\libc.a(lib_a-mlock.o)
 .debug_info    0x0000c2be      0x8f6 c:/gnat/2017/bin/../lib/gcc/arm-eabi/6.3.1/../../../../arm-eabi/lib/armv7em/thumb/fpu/fpv4-sp-d16\libc.a(lib_a-realloc.o)
 .debug_info    0x0000cbb4      0xdac c:/gnat/2017/bin/../lib/gcc/arm-eabi/6.3.1/../../../../arm-eabi/lib/armv7em/thumb/fpu/fpv4-sp-d16\libc.a(lib_a-reallocr.o)
 .debug_info    0x0000d960      0x95a c:/gnat/2017/bin/../lib/gcc/arm-eabi/6.3.1/../../../../arm-eabi/lib/armv7em/thumb/fpu/fpv4-sp-d16\libc.a(lib_a-sbrkr.o)
 .debug_info    0x0000e2ba      0xcbe c:/gnat/2017/bin/../lib/gcc/arm-eabi/6.3.1/../../../../arm-eabi/lib/armv7em/thumb/fpu/fpv4-sp-d16\libc.a(lib_a-freer.o)
 .debug_info    0x0000ef78      0x8a5 c:/gnat/2017/bin/../lib/gcc/arm-eabi/6.3.1/../../../../arm-eabi/lib/armv7em/thumb/fpu/fpv4-sp-d16\libc.a(lib_a-impure.o)
 .debug_info    0x0000f81d      0xa18 c:/gnat/2017/bin/../lib/gcc/arm-eabi/6.3.1/../../../../arm-eabi/lib/armv7em/thumb/fpu/fpv4-sp-d16\libc.a(lib_a-reent.o)
 .debug_info    0x00010235     0x1c0c c:/gnat/2017/bin/../lib/gcc/arm-eabi/6.3.1/armv7em/thumb/fpu/fpv4-sp-d16\libgcc.a(unwind-arm.o)
 .debug_info    0x00011e41       0xc8 c:/gnat/2017/bin/../lib/gcc/arm-eabi/6.3.1/armv7em/thumb/fpu/fpv4-sp-d16\libgcc.a(libunwind.o)
 .debug_info    0x00011f09      0x9b8 c:/gnat/2017/bin/../lib/gcc/arm-eabi/6.3.1/armv7em/thumb/fpu/fpv4-sp-d16\libgcc.a(pr-support.o)
 .debug_info    0x000128c1      0x8cc c:/gnat/2017/bin/../lib/gcc/arm-eabi/6.3.1/../../../../arm-eabi/lib/armv7em/thumb/fpu/fpv4-sp-d16\libc.a(lib_a-errno.o)

.debug_abbrev   0x00000000     0x3174
 *(.debug_abbrev)
 .debug_abbrev  0x00000000       0x46 project_main.o
 .debug_abbrev  0x00000046       0xd1 b__project_main.o
 .debug_abbrev  0x00000117       0x26 C:\Users\simon\OneDrive\Documents\STM32\System Project\obj\constants.o
 .debug_abbrev  0x0000013d       0xba C:\Users\simon\OneDrive\Documents\STM32\System Project\obj\failure_types.o
 .debug_abbrev  0x000001f7       0x74 C:\Users\simon\OneDrive\Documents\STM32\System Project\obj\failure_log.o
 .debug_abbrev  0x0000026b       0x5e C:\Users\simon\OneDrive\Documents\STM32\System Project\obj\first_phase.o
 .debug_abbrev  0x000002c9       0x26 C:\Users\simon\OneDrive\Documents\STM32\System Project\obj\registers.o
 .debug_abbrev  0x000002ef       0x26 C:\Users\simon\OneDrive\Documents\STM32\System Project\obj\signals.o
 .debug_abbrev  0x00000315       0xd3 C:\Users\simon\OneDrive\Documents\STM32\System Project\obj\signal_register_database.o
 .debug_abbrev  0x000003e8       0x7f C:\Users\simon\OneDrive\Documents\STM32\System Project\obj\main_system_checks.o
 .debug_abbrev  0x00000467      0x1cd C:\gnat\2017\arm-eabi\lib\gnat\ravenscar-full-stm32f4\adalib\\libgnat.a(s-tasdeb.o)
 .debug_abbrev  0x00000634      0x6a0 C:\gnat\2017\arm-eabi\lib\gnat\ravenscar-full-stm32f4\adalib\\libgnat.a(a-tags.o)
 .debug_abbrev  0x00000cd4      0x5d2 C:\gnat\2017\arm-eabi\lib\gnat\ravenscar-full-stm32f4\adalib\\libgnat.a(a-except.o)
 .debug_abbrev  0x000012a6      0x221 C:\gnat\2017\arm-eabi\lib\gnat\ravenscar-full-stm32f4\adalib\\libgnat.a(s-traceb.o)
 .debug_abbrev  0x000014c7      0x120 C:\gnat\2017\arm-eabi\lib\gnat\ravenscar-full-stm32f4\adalib\\libgnat.a(s-excdeb.o)
 .debug_abbrev  0x000015e7      0x1f6 c:/gnat/2017/bin/../lib/gcc/arm-eabi/6.3.1/../../../../arm-eabi/lib/armv7em/thumb/fpu/fpv4-sp-d16\libc.a(lib_a-malloc.o)
 .debug_abbrev  0x000017dd      0x2c4 c:/gnat/2017/bin/../lib/gcc/arm-eabi/6.3.1/../../../../arm-eabi/lib/armv7em/thumb/fpu/fpv4-sp-d16\libc.a(lib_a-mallocr.o)
 .debug_abbrev  0x00001aa1      0x1ca c:/gnat/2017/bin/../lib/gcc/arm-eabi/6.3.1/../../../../arm-eabi/lib/armv7em/thumb/fpu/fpv4-sp-d16\libc.a(lib_a-mlock.o)
 .debug_abbrev  0x00001c6b      0x1eb c:/gnat/2017/bin/../lib/gcc/arm-eabi/6.3.1/../../../../arm-eabi/lib/armv7em/thumb/fpu/fpv4-sp-d16\libc.a(lib_a-realloc.o)
 .debug_abbrev  0x00001e56      0x260 c:/gnat/2017/bin/../lib/gcc/arm-eabi/6.3.1/../../../../arm-eabi/lib/armv7em/thumb/fpu/fpv4-sp-d16\libc.a(lib_a-reallocr.o)
 .debug_abbrev  0x000020b6      0x20c c:/gnat/2017/bin/../lib/gcc/arm-eabi/6.3.1/../../../../arm-eabi/lib/armv7em/thumb/fpu/fpv4-sp-d16\libc.a(lib_a-sbrkr.o)
 .debug_abbrev  0x000022c2      0x288 c:/gnat/2017/bin/../lib/gcc/arm-eabi/6.3.1/../../../../arm-eabi/lib/armv7em/thumb/fpu/fpv4-sp-d16\libc.a(lib_a-freer.o)
 .debug_abbrev  0x0000254a      0x189 c:/gnat/2017/bin/../lib/gcc/arm-eabi/6.3.1/../../../../arm-eabi/lib/armv7em/thumb/fpu/fpv4-sp-d16\libc.a(lib_a-impure.o)
 .debug_abbrev  0x000026d3      0x26d c:/gnat/2017/bin/../lib/gcc/arm-eabi/6.3.1/../../../../arm-eabi/lib/armv7em/thumb/fpu/fpv4-sp-d16\libc.a(lib_a-reent.o)
 .debug_abbrev  0x00002940      0x3fe c:/gnat/2017/bin/../lib/gcc/arm-eabi/6.3.1/armv7em/thumb/fpu/fpv4-sp-d16\libgcc.a(unwind-arm.o)
 .debug_abbrev  0x00002d3e       0x14 c:/gnat/2017/bin/../lib/gcc/arm-eabi/6.3.1/armv7em/thumb/fpu/fpv4-sp-d16\libgcc.a(libunwind.o)
 .debug_abbrev  0x00002d52      0x27d c:/gnat/2017/bin/../lib/gcc/arm-eabi/6.3.1/armv7em/thumb/fpu/fpv4-sp-d16\libgcc.a(pr-support.o)
 .debug_abbrev  0x00002fcf      0x1a5 c:/gnat/2017/bin/../lib/gcc/arm-eabi/6.3.1/../../../../arm-eabi/lib/armv7em/thumb/fpu/fpv4-sp-d16\libc.a(lib_a-errno.o)

.debug_line     0x00000000     0x4206
 *(.debug_line)
 .debug_line    0x00000000       0x82 project_main.o
 .debug_line    0x00000082       0x91 b__project_main.o
 .debug_line    0x00000113       0x1d C:\Users\simon\OneDrive\Documents\STM32\System Project\obj\constants.o
 .debug_line    0x00000130       0x71 C:\Users\simon\OneDrive\Documents\STM32\System Project\obj\failure_types.o
 .debug_line    0x000001a1       0xbc C:\Users\simon\OneDrive\Documents\STM32\System Project\obj\failure_log.o
 .debug_line    0x0000025d       0x93 C:\Users\simon\OneDrive\Documents\STM32\System Project\obj\first_phase.o
 .debug_line    0x000002f0       0x1d C:\Users\simon\OneDrive\Documents\STM32\System Project\obj\registers.o
 .debug_line    0x0000030d       0x1d C:\Users\simon\OneDrive\Documents\STM32\System Project\obj\signals.o
 .debug_line    0x0000032a       0xb2 C:\Users\simon\OneDrive\Documents\STM32\System Project\obj\signal_register_database.o
 .debug_line    0x000003dc      0x1cd C:\Users\simon\OneDrive\Documents\STM32\System Project\obj\main_system_checks.o
 .debug_line    0x000005a9      0x320 C:\gnat\2017\arm-eabi\lib\gnat\ravenscar-full-stm32f4\adalib\\libgnat.a(s-tasdeb.o)
 .debug_line    0x000008c9      0x963 C:\gnat\2017\arm-eabi\lib\gnat\ravenscar-full-stm32f4\adalib\\libgnat.a(a-tags.o)
 .debug_line    0x0000122c     0x10f8 C:\gnat\2017\arm-eabi\lib\gnat\ravenscar-full-stm32f4\adalib\\libgnat.a(a-except.o)
 .debug_line    0x00002324      0x229 C:\gnat\2017\arm-eabi\lib\gnat\ravenscar-full-stm32f4\adalib\\libgnat.a(s-traceb.o)
 .debug_line    0x0000254d      0x10b C:\gnat\2017\arm-eabi\lib\gnat\ravenscar-full-stm32f4\adalib\\libgnat.a(s-excdeb.o)
 .debug_line    0x00002658      0x1ab c:/gnat/2017/bin/../lib/gcc/arm-eabi/6.3.1/../../../../arm-eabi/lib/armv7em/thumb/fpu/fpv4-sp-d16\libc.a(lib_a-malloc.o)
 .debug_line    0x00002803      0x3ec c:/gnat/2017/bin/../lib/gcc/arm-eabi/6.3.1/../../../../arm-eabi/lib/armv7em/thumb/fpu/fpv4-sp-d16\libc.a(lib_a-mallocr.o)
 .debug_line    0x00002bef      0x13f c:/gnat/2017/bin/../lib/gcc/arm-eabi/6.3.1/../../../../arm-eabi/lib/armv7em/thumb/fpu/fpv4-sp-d16\libc.a(lib_a-mlock.o)
 .debug_line    0x00002d2e      0x1a9 c:/gnat/2017/bin/../lib/gcc/arm-eabi/6.3.1/../../../../arm-eabi/lib/armv7em/thumb/fpu/fpv4-sp-d16\libc.a(lib_a-realloc.o)
 .debug_line    0x00002ed7      0x2c0 c:/gnat/2017/bin/../lib/gcc/arm-eabi/6.3.1/../../../../arm-eabi/lib/armv7em/thumb/fpu/fpv4-sp-d16\libc.a(lib_a-reallocr.o)
 .debug_line    0x00003197      0x1b1 c:/gnat/2017/bin/../lib/gcc/arm-eabi/6.3.1/../../../../arm-eabi/lib/armv7em/thumb/fpu/fpv4-sp-d16\libc.a(lib_a-sbrkr.o)
 .debug_line    0x00003348      0x2c5 c:/gnat/2017/bin/../lib/gcc/arm-eabi/6.3.1/../../../../arm-eabi/lib/armv7em/thumb/fpu/fpv4-sp-d16\libc.a(lib_a-freer.o)
 .debug_line    0x0000360d      0x12f c:/gnat/2017/bin/../lib/gcc/arm-eabi/6.3.1/../../../../arm-eabi/lib/armv7em/thumb/fpu/fpv4-sp-d16\libc.a(lib_a-impure.o)
 .debug_line    0x0000373c      0x1d4 c:/gnat/2017/bin/../lib/gcc/arm-eabi/6.3.1/../../../../arm-eabi/lib/armv7em/thumb/fpu/fpv4-sp-d16\libc.a(lib_a-reent.o)
 .debug_line    0x00003910      0x515 c:/gnat/2017/bin/../lib/gcc/arm-eabi/6.3.1/armv7em/thumb/fpu/fpv4-sp-d16\libgcc.a(unwind-arm.o)
 .debug_line    0x00003e25       0xb4 c:/gnat/2017/bin/../lib/gcc/arm-eabi/6.3.1/armv7em/thumb/fpu/fpv4-sp-d16\libgcc.a(libunwind.o)
 .debug_line    0x00003ed9      0x1e3 c:/gnat/2017/bin/../lib/gcc/arm-eabi/6.3.1/armv7em/thumb/fpu/fpv4-sp-d16\libgcc.a(pr-support.o)
 .debug_line    0x000040bc      0x14a c:/gnat/2017/bin/../lib/gcc/arm-eabi/6.3.1/../../../../arm-eabi/lib/armv7em/thumb/fpu/fpv4-sp-d16\libc.a(lib_a-errno.o)

.debug_frame    0x00000000     0x20c0
 *(.debug_frame)
 .debug_frame   0x00000000       0x34 project_main.o
 .debug_frame   0x00000034       0x6c b__project_main.o
 .debug_frame   0x000000a0       0x60 C:\Users\simon\OneDrive\Documents\STM32\System Project\obj\failure_types.o
 .debug_frame   0x00000100       0x38 C:\Users\simon\OneDrive\Documents\STM32\System Project\obj\failure_log.o
 .debug_frame   0x00000138       0x34 C:\Users\simon\OneDrive\Documents\STM32\System Project\obj\first_phase.o
 .debug_frame   0x0000016c       0x58 C:\Users\simon\OneDrive\Documents\STM32\System Project\obj\registers.o
 .debug_frame   0x000001c4       0x58 C:\Users\simon\OneDrive\Documents\STM32\System Project\obj\signals.o
 .debug_frame   0x0000021c       0xb0 C:\Users\simon\OneDrive\Documents\STM32\System Project\obj\signal_register_database.o
 .debug_frame   0x000002cc       0xac C:\Users\simon\OneDrive\Documents\STM32\System Project\obj\main_system_checks.o
 .debug_frame   0x00000378       0x38 C:\gnat\2017\arm-eabi\lib\gnat\ravenscar-full-stm32f4\adalib\\libgnat.a(s-tasdeb.o)
 .debug_frame   0x000003b0      0x5cc C:\gnat\2017\arm-eabi\lib\gnat\ravenscar-full-stm32f4\adalib\\libgnat.a(a-tags.o)
 .debug_frame   0x0000097c      0xfec C:\gnat\2017\arm-eabi\lib\gnat\ravenscar-full-stm32f4\adalib\\libgnat.a(a-except.o)
 .debug_frame   0x00001968       0x78 C:\gnat\2017\arm-eabi\lib\gnat\ravenscar-full-stm32f4\adalib\\libgnat.a(s-traceb.o)
 .debug_frame   0x000019e0       0xa8 C:\gnat\2017\arm-eabi\lib\gnat\ravenscar-full-stm32f4\adalib\\libgnat.a(s-excdeb.o)
 .debug_frame   0x00001a88       0x30 c:/gnat/2017/bin/../lib/gcc/arm-eabi/6.3.1/../../../../arm-eabi/lib/armv7em/thumb/fpu/fpv4-sp-d16\libc.a(lib_a-malloc.o)
 .debug_frame   0x00001ab8       0x58 c:/gnat/2017/bin/../lib/gcc/arm-eabi/6.3.1/../../../../arm-eabi/lib/armv7em/thumb/fpu/fpv4-sp-d16\libc.a(lib_a-mallocr.o)
 .debug_frame   0x00001b10       0x30 c:/gnat/2017/bin/../lib/gcc/arm-eabi/6.3.1/../../../../arm-eabi/lib/armv7em/thumb/fpu/fpv4-sp-d16\libc.a(lib_a-mlock.o)
 .debug_frame   0x00001b40       0x20 c:/gnat/2017/bin/../lib/gcc/arm-eabi/6.3.1/../../../../arm-eabi/lib/armv7em/thumb/fpu/fpv4-sp-d16\libc.a(lib_a-realloc.o)
 .debug_frame   0x00001b60       0x58 c:/gnat/2017/bin/../lib/gcc/arm-eabi/6.3.1/../../../../arm-eabi/lib/armv7em/thumb/fpu/fpv4-sp-d16\libc.a(lib_a-reallocr.o)
 .debug_frame   0x00001bb8       0x2c c:/gnat/2017/bin/../lib/gcc/arm-eabi/6.3.1/../../../../arm-eabi/lib/armv7em/thumb/fpu/fpv4-sp-d16\libc.a(lib_a-sbrkr.o)
 .debug_frame   0x00001be4       0x80 c:/gnat/2017/bin/../lib/gcc/arm-eabi/6.3.1/../../../../arm-eabi/lib/armv7em/thumb/fpu/fpv4-sp-d16\libc.a(lib_a-freer.o)
 .debug_frame   0x00001c64       0x58 c:/gnat/2017/bin/../lib/gcc/arm-eabi/6.3.1/../../../../arm-eabi/lib/armv7em/thumb/fpu/fpv4-sp-d16\libc.a(lib_a-reent.o)
 .debug_frame   0x00001cbc      0x2e0 c:/gnat/2017/bin/../lib/gcc/arm-eabi/6.3.1/armv7em/thumb/fpu/fpv4-sp-d16\libgcc.a(unwind-arm.o)
 .debug_frame   0x00001f9c      0x104 c:/gnat/2017/bin/../lib/gcc/arm-eabi/6.3.1/armv7em/thumb/fpu/fpv4-sp-d16\libgcc.a(pr-support.o)
 .debug_frame   0x000020a0       0x20 c:/gnat/2017/bin/../lib/gcc/arm-eabi/6.3.1/../../../../arm-eabi/lib/armv7em/thumb/fpu/fpv4-sp-d16\libc.a(lib_a-errno.o)

.debug_str      0x00000000     0xc838
 *(.debug_str)
 .debug_str     0x00000000      0x218 project_main.o
                                0x225 (size before relaxing)
 .debug_str     0x00000218      0x39c b__project_main.o
                                0x3db (size before relaxing)
 .debug_str     0x000005b4       0x7d C:\Users\simon\OneDrive\Documents\STM32\System Project\obj\constants.o
                                0x22d (size before relaxing)
 .debug_str     0x00000631      0x38d C:\Users\simon\OneDrive\Documents\STM32\System Project\obj\failure_types.o
                                0x550 (size before relaxing)
 .debug_str     0x000009be       0x7b C:\Users\simon\OneDrive\Documents\STM32\System Project\obj\failure_log.o
                                0x39c (size before relaxing)
 .debug_str     0x00000a39       0xa4 C:\Users\simon\OneDrive\Documents\STM32\System Project\obj\first_phase.o
                                0x29e (size before relaxing)
 .debug_str     0x00000add       0x7e C:\Users\simon\OneDrive\Documents\STM32\System Project\obj\registers.o
                                0x238 (size before relaxing)
 .debug_str     0x00000b5b       0x50 C:\Users\simon\OneDrive\Documents\STM32\System Project\obj\signals.o
                                0x236 (size before relaxing)
 .debug_str     0x00000bab      0x719 C:\Users\simon\OneDrive\Documents\STM32\System Project\obj\signal_register_database.o
                                0x905 (size before relaxing)
 .debug_str     0x000012c4      0x1b2 C:\Users\simon\OneDrive\Documents\STM32\System Project\obj\main_system_checks.o
                                0x61e (size before relaxing)
 .debug_str     0x00001476      0xf20 C:\gnat\2017\arm-eabi\lib\gnat\ravenscar-full-stm32f4\adalib\\libgnat.a(s-tasdeb.o)
                                0xfa9 (size before relaxing)
 .debug_str     0x00002396     0x273b C:\gnat\2017\arm-eabi\lib\gnat\ravenscar-full-stm32f4\adalib\\libgnat.a(a-tags.o)
                               0x29e2 (size before relaxing)
 .debug_str     0x00004ad1     0x5c55 C:\gnat\2017\arm-eabi\lib\gnat\ravenscar-full-stm32f4\adalib\\libgnat.a(a-except.o)
                               0x637b (size before relaxing)
 .debug_str     0x0000a726      0x6c8 C:\gnat\2017\arm-eabi\lib\gnat\ravenscar-full-stm32f4\adalib\\libgnat.a(s-traceb.o)
                                0x83f (size before relaxing)
 .debug_str     0x0000adee      0x361 C:\gnat\2017\arm-eabi\lib\gnat\ravenscar-full-stm32f4\adalib\\libgnat.a(s-excdeb.o)
                                0x601 (size before relaxing)
 .debug_str     0x0000b14f      0x57f c:/gnat/2017/bin/../lib/gcc/arm-eabi/6.3.1/../../../../arm-eabi/lib/armv7em/thumb/fpu/fpv4-sp-d16\libc.a(lib_a-malloc.o)
                                0x621 (size before relaxing)
 .debug_str     0x0000b6ce      0x25b c:/gnat/2017/bin/../lib/gcc/arm-eabi/6.3.1/../../../../arm-eabi/lib/armv7em/thumb/fpu/fpv4-sp-d16\libc.a(lib_a-mallocr.o)
                                0x858 (size before relaxing)
 .debug_str     0x0000b929       0x4f c:/gnat/2017/bin/../lib/gcc/arm-eabi/6.3.1/../../../../arm-eabi/lib/armv7em/thumb/fpu/fpv4-sp-d16\libc.a(lib_a-mlock.o)
                                0x618 (size before relaxing)
 .debug_str     0x0000b978       0x4f c:/gnat/2017/bin/../lib/gcc/arm-eabi/6.3.1/../../../../arm-eabi/lib/armv7em/thumb/fpu/fpv4-sp-d16\libc.a(lib_a-realloc.o)
                                0x612 (size before relaxing)
 .debug_str     0x0000b9c7       0x51 c:/gnat/2017/bin/../lib/gcc/arm-eabi/6.3.1/../../../../arm-eabi/lib/armv7em/thumb/fpu/fpv4-sp-d16\libc.a(lib_a-reallocr.o)
                                0x80f (size before relaxing)
 .debug_str     0x0000ba18       0xc7 c:/gnat/2017/bin/../lib/gcc/arm-eabi/6.3.1/../../../../arm-eabi/lib/armv7em/thumb/fpu/fpv4-sp-d16\libc.a(lib_a-sbrkr.o)
                                0x633 (size before relaxing)
 .debug_str     0x0000badf       0x34 c:/gnat/2017/bin/../lib/gcc/arm-eabi/6.3.1/../../../../arm-eabi/lib/armv7em/thumb/fpu/fpv4-sp-d16\libc.a(lib_a-freer.o)
                                0x7d1 (size before relaxing)
 .debug_str     0x0000bb13       0x46 c:/gnat/2017/bin/../lib/gcc/arm-eabi/6.3.1/../../../../arm-eabi/lib/armv7em/thumb/fpu/fpv4-sp-d16\libc.a(lib_a-impure.o)
                                0x5f0 (size before relaxing)
 .debug_str     0x0000bb59       0x65 c:/gnat/2017/bin/../lib/gcc/arm-eabi/6.3.1/../../../../arm-eabi/lib/armv7em/thumb/fpu/fpv4-sp-d16\libc.a(lib_a-reent.o)
                                0x62c (size before relaxing)
 .debug_str     0x0000bbbe      0xada c:/gnat/2017/bin/../lib/gcc/arm-eabi/6.3.1/armv7em/thumb/fpu/fpv4-sp-d16\libgcc.a(unwind-arm.o)
                                0xcc7 (size before relaxing)
 .debug_str     0x0000c698       0xe6 c:/gnat/2017/bin/../lib/gcc/arm-eabi/6.3.1/armv7em/thumb/fpu/fpv4-sp-d16\libgcc.a(pr-support.o)
                                0x591 (size before relaxing)
 .debug_str     0x0000c77e       0xba c:/gnat/2017/bin/../lib/gcc/arm-eabi/6.3.1/../../../../arm-eabi/lib/armv7em/thumb/fpu/fpv4-sp-d16\libc.a(lib_a-errno.o)
                                0x602 (size before relaxing)

.debug_loc      0x00000000     0x9b41
 *(.debug_loc)
 .debug_loc     0x00000000     0x2416 C:\gnat\2017\arm-eabi\lib\gnat\ravenscar-full-stm32f4\adalib\\libgnat.a(a-tags.o)
 .debug_loc     0x00002416     0x36e0 C:\gnat\2017\arm-eabi\lib\gnat\ravenscar-full-stm32f4\adalib\\libgnat.a(a-except.o)
 .debug_loc     0x00005af6      0x117 C:\gnat\2017\arm-eabi\lib\gnat\ravenscar-full-stm32f4\adalib\\libgnat.a(s-traceb.o)
 .debug_loc     0x00005c0d       0x58 c:/gnat/2017/bin/../lib/gcc/arm-eabi/6.3.1/../../../../arm-eabi/lib/armv7em/thumb/fpu/fpv4-sp-d16\libc.a(lib_a-malloc.o)
 .debug_loc     0x00005c65      0xd19 c:/gnat/2017/bin/../lib/gcc/arm-eabi/6.3.1/../../../../arm-eabi/lib/armv7em/thumb/fpu/fpv4-sp-d16\libc.a(lib_a-mallocr.o)
 .debug_loc     0x0000697e       0x58 c:/gnat/2017/bin/../lib/gcc/arm-eabi/6.3.1/../../../../arm-eabi/lib/armv7em/thumb/fpu/fpv4-sp-d16\libc.a(lib_a-realloc.o)
 .debug_loc     0x000069d6      0xeb5 c:/gnat/2017/bin/../lib/gcc/arm-eabi/6.3.1/../../../../arm-eabi/lib/armv7em/thumb/fpu/fpv4-sp-d16\libc.a(lib_a-reallocr.o)
 .debug_loc     0x0000788b       0x4d c:/gnat/2017/bin/../lib/gcc/arm-eabi/6.3.1/../../../../arm-eabi/lib/armv7em/thumb/fpu/fpv4-sp-d16\libc.a(lib_a-sbrkr.o)
 .debug_loc     0x000078d8      0x5df c:/gnat/2017/bin/../lib/gcc/arm-eabi/6.3.1/../../../../arm-eabi/lib/armv7em/thumb/fpu/fpv4-sp-d16\libc.a(lib_a-freer.o)
 .debug_loc     0x00007eb7      0x11d c:/gnat/2017/bin/../lib/gcc/arm-eabi/6.3.1/../../../../arm-eabi/lib/armv7em/thumb/fpu/fpv4-sp-d16\libc.a(lib_a-reent.o)
 .debug_loc     0x00007fd4     0x16a1 c:/gnat/2017/bin/../lib/gcc/arm-eabi/6.3.1/armv7em/thumb/fpu/fpv4-sp-d16\libgcc.a(unwind-arm.o)
 .debug_loc     0x00009675      0x4cc c:/gnat/2017/bin/../lib/gcc/arm-eabi/6.3.1/armv7em/thumb/fpu/fpv4-sp-d16\libgcc.a(pr-support.o)

.debug_macinfo
 *(.debug_macinfo)

.debug_pubtypes
 *(.debug_pubtypes)

.debug_ranges   0x00000000      0xaf8
 *(.debug_ranges)
 .debug_ranges  0x00000000       0x10 C:\gnat\2017\arm-eabi\lib\gnat\ravenscar-full-stm32f4\adalib\\libgnat.a(s-tasdeb.o)
 .debug_ranges  0x00000010      0x328 C:\gnat\2017\arm-eabi\lib\gnat\ravenscar-full-stm32f4\adalib\\libgnat.a(a-tags.o)
 .debug_ranges  0x00000338      0x4d8 C:\gnat\2017\arm-eabi\lib\gnat\ravenscar-full-stm32f4\adalib\\libgnat.a(a-except.o)
 .debug_ranges  0x00000810       0x48 C:\gnat\2017\arm-eabi\lib\gnat\ravenscar-full-stm32f4\adalib\\libgnat.a(s-traceb.o)
 .debug_ranges  0x00000858       0x28 C:\gnat\2017\arm-eabi\lib\gnat\ravenscar-full-stm32f4\adalib\\libgnat.a(s-excdeb.o)
 .debug_ranges  0x00000880       0x40 c:/gnat/2017/bin/../lib/gcc/arm-eabi/6.3.1/../../../../arm-eabi/lib/armv7em/thumb/fpu/fpv4-sp-d16\libc.a(lib_a-mallocr.o)
 .debug_ranges  0x000008c0      0x110 c:/gnat/2017/bin/../lib/gcc/arm-eabi/6.3.1/../../../../arm-eabi/lib/armv7em/thumb/fpu/fpv4-sp-d16\libc.a(lib_a-reallocr.o)
 .debug_ranges  0x000009d0      0x128 c:/gnat/2017/bin/../lib/gcc/arm-eabi/6.3.1/armv7em/thumb/fpu/fpv4-sp-d16\libgcc.a(unwind-arm.o)

.comment        0x00000000       0x37
 .comment       0x00000000       0x37 project_main.o
                                 0x38 (size before relaxing)
 .comment       0x00000037       0x38 b__project_main.o
 .comment       0x00000037       0x38 C:\Users\simon\OneDrive\Documents\STM32\System Project\obj\constants.o
 .comment       0x00000037       0x38 C:\Users\simon\OneDrive\Documents\STM32\System Project\obj\failure_types.o
 .comment       0x00000037       0x38 C:\Users\simon\OneDrive\Documents\STM32\System Project\obj\failure_log.o
 .comment       0x00000037       0x38 C:\Users\simon\OneDrive\Documents\STM32\System Project\obj\first_phase.o
 .comment       0x00000037       0x38 C:\Users\simon\OneDrive\Documents\STM32\System Project\obj\registers.o
 .comment       0x00000037       0x38 C:\Users\simon\OneDrive\Documents\STM32\System Project\obj\signals.o
 .comment       0x00000037       0x38 C:\Users\simon\OneDrive\Documents\STM32\System Project\obj\signal_register_database.o
 .comment       0x00000037       0x38 C:\Users\simon\OneDrive\Documents\STM32\System Project\obj\main_system_checks.o
 .comment       0x00000037       0x38 C:\gnat\2017\arm-eabi\lib\gnat\ravenscar-full-stm32f4\adalib\\libgnat.a(setup_pll.o)
 .comment       0x00000037       0x38 C:\gnat\2017\arm-eabi\lib\gnat\ravenscar-full-stm32f4\adalib\\libgnat.a(s-macres.o)
 .comment       0x00000037       0x38 C:\gnat\2017\arm-eabi\lib\gnat\ravenscar-full-stm32f4\adalib\\libgnat.a(s-taskin.o)
 .comment       0x00000037       0x38 C:\gnat\2017\arm-eabi\lib\gnat\ravenscar-full-stm32f4\adalib\\libgnat.a(s-tasdeb.o)
 .comment       0x00000037       0x38 C:\gnat\2017\arm-eabi\lib\gnat\ravenscar-full-stm32f4\adalib\\libgnat.a(s-taprop.o)
 .comment       0x00000037       0x38 C:\gnat\2017\arm-eabi\lib\gnat\ravenscar-full-stm32f4\adalib\\libgnat.a(s-parame.o)
 .comment       0x00000037       0x38 C:\gnat\2017\arm-eabi\lib\gnat\ravenscar-full-stm32f4\adalib\\libgnat.a(s-bcprmu.o)
 .comment       0x00000037       0x38 C:\gnat\2017\arm-eabi\lib\gnat\ravenscar-full-stm32f4\adalib\\libgnat.a(s-bbtiev.o)
 .comment       0x00000037       0x38 C:\gnat\2017\arm-eabi\lib\gnat\ravenscar-full-stm32f4\adalib\\libgnat.a(s-bbthre.o)
 .comment       0x00000037       0x38 C:\gnat\2017\arm-eabi\lib\gnat\ravenscar-full-stm32f4\adalib\\libgnat.a(s-bbthqu.o)
 .comment       0x00000037       0x38 C:\gnat\2017\arm-eabi\lib\gnat\ravenscar-full-stm32f4\adalib\\libgnat.a(s-bbprot.o)
 .comment       0x00000037       0x38 C:\gnat\2017\arm-eabi\lib\gnat\ravenscar-full-stm32f4\adalib\\libgnat.a(s-stalib.o)
 .comment       0x00000037       0x38 C:\gnat\2017\arm-eabi\lib\gnat\ravenscar-full-stm32f4\adalib\\libgnat.a(s-soflin.o)
 .comment       0x00000037       0x38 C:\gnat\2017\arm-eabi\lib\gnat\ravenscar-full-stm32f4\adalib\\libgnat.a(s-init.o)
 .comment       0x00000037       0x38 C:\gnat\2017\arm-eabi\lib\gnat\ravenscar-full-stm32f4\adalib\\libgnat.a(s-exctab.o)
 .comment       0x00000037       0x38 C:\gnat\2017\arm-eabi\lib\gnat\ravenscar-full-stm32f4\adalib\\libgnat.a(a-tags.o)
 .comment       0x00000037       0x38 C:\gnat\2017\arm-eabi\lib\gnat\ravenscar-full-stm32f4\adalib\\libgnat.a(a-except.o)
 .comment       0x00000037       0x38 C:\gnat\2017\arm-eabi\lib\gnat\ravenscar-full-stm32f4\adalib\\libgnat.a(a-elchha.o)
 .comment       0x00000037       0x38 C:\gnat\2017\arm-eabi\lib\gnat\ravenscar-full-stm32f4\adalib\\libgnat.a(s-memset.o)
 .comment       0x00000037       0x38 C:\gnat\2017\arm-eabi\lib\gnat\ravenscar-full-stm32f4\adalib\\libgnat.a(s-memmov.o)
 .comment       0x00000037       0x38 C:\gnat\2017\arm-eabi\lib\gnat\ravenscar-full-stm32f4\adalib\\libgnat.a(s-memcop.o)
 .comment       0x00000037       0x38 C:\gnat\2017\arm-eabi\lib\gnat\ravenscar-full-stm32f4\adalib\\libgnat.a(s-memcom.o)
 .comment       0x00000037       0x38 C:\gnat\2017\arm-eabi\lib\gnat\ravenscar-full-stm32f4\adalib\\libgnat.a(s-secsta.o)
 .comment       0x00000037       0x38 C:\gnat\2017\arm-eabi\lib\gnat\ravenscar-full-stm32f4\adalib\\libgnat.a(s-imgint.o)
 .comment       0x00000037       0x38 C:\gnat\2017\arm-eabi\lib\gnat\ravenscar-full-stm32f4\adalib\\libgnat.a(raise-gcc.o)
 .comment       0x00000037       0x38 C:\gnat\2017\arm-eabi\lib\gnat\ravenscar-full-stm32f4\adalib\\libgnat.a(adaint-xi.o)
 .comment       0x00000037       0x38 C:\gnat\2017\arm-eabi\lib\gnat\ravenscar-full-stm32f4\adalib\\libgnat.a(s-bbinte.o)
 .comment       0x00000037       0x38 C:\gnat\2017\arm-eabi\lib\gnat\ravenscar-full-stm32f4\adalib\\libgnat.a(s-bbcppr.o)
 .comment       0x00000037       0x38 C:\gnat\2017\arm-eabi\lib\gnat\ravenscar-full-stm32f4\adalib\\libgnat.a(s-bbbosu.o)
 .comment       0x00000037       0x38 C:\gnat\2017\arm-eabi\lib\gnat\ravenscar-full-stm32f4\adalib\\libgnat.a(s-bbmcpa.o)
 .comment       0x00000037       0x38 C:\gnat\2017\arm-eabi\lib\gnat\ravenscar-full-stm32f4\adalib\\libgnat.a(s-bbtime.o)
 .comment       0x00000037       0x38 C:\gnat\2017\arm-eabi\lib\gnat\ravenscar-full-stm32f4\adalib\\libgnat.a(s-traceb.o)
 .comment       0x00000037       0x38 C:\gnat\2017\arm-eabi\lib\gnat\ravenscar-full-stm32f4\adalib\\libgnat.a(s-excmac.o)
 .comment       0x00000037       0x38 C:\gnat\2017\arm-eabi\lib\gnat\ravenscar-full-stm32f4\adalib\\libgnat.a(s-wchstw.o)
 .comment       0x00000037       0x38 C:\gnat\2017\arm-eabi\lib\gnat\ravenscar-full-stm32f4\adalib\\libgnat.a(s-wchjis.o)
 .comment       0x00000037       0x38 C:\gnat\2017\arm-eabi\lib\gnat\ravenscar-full-stm32f4\adalib\\libgnat.a(s-wchcon.o)
 .comment       0x00000037       0x38 C:\gnat\2017\arm-eabi\lib\gnat\ravenscar-full-stm32f4\adalib\\libgnat.a(s-valuns.o)
 .comment       0x00000037       0x38 C:\gnat\2017\arm-eabi\lib\gnat\ravenscar-full-stm32f4\adalib\\libgnat.a(s-traent.o)
 .comment       0x00000037       0x38 C:\gnat\2017\arm-eabi\lib\gnat\ravenscar-full-stm32f4\adalib\\libgnat.a(s-memory.o)
 .comment       0x00000037       0x38 C:\gnat\2017\arm-eabi\lib\gnat\ravenscar-full-stm32f4\adalib\\libgnat.a(s-io.o)
 .comment       0x00000037       0x38 C:\gnat\2017\arm-eabi\lib\gnat\ravenscar-full-stm32f4\adalib\\libgnat.a(s-except.o)
 .comment       0x00000037       0x38 C:\gnat\2017\arm-eabi\lib\gnat\ravenscar-full-stm32f4\adalib\\libgnat.a(s-excdeb.o)
 .comment       0x00000037       0x38 C:\gnat\2017\arm-eabi\lib\gnat\ravenscar-full-stm32f4\adalib\\libgnat.a(g-debuti.o)
 .comment       0x00000037       0x38 C:\gnat\2017\arm-eabi\lib\gnat\ravenscar-full-stm32f4\adalib\\libgnat.a(s-textio.o)
 .comment       0x00000037       0x38 C:\gnat\2017\arm-eabi\lib\gnat\ravenscar-full-stm32f4\adalib\\libgnat.a(s-semiho.o)
 .comment       0x00000037       0x38 C:\gnat\2017\arm-eabi\lib\gnat\ravenscar-full-stm32f4\adalib\\libgnat.a(s-valuti.o)
 .comment       0x00000037       0x38 C:\gnat\2017\arm-eabi\lib\gnat\ravenscar-full-stm32f4\adalib\\libgnat.a(s-casuti.o)
 .comment       0x00000037       0x38 c:/gnat/2017/bin/../lib/gcc/arm-eabi/6.3.1/../../../../arm-eabi/lib/armv7em/thumb/fpu/fpv4-sp-d16\libc.a(lib_a-malloc.o)
 .comment       0x00000037       0x38 c:/gnat/2017/bin/../lib/gcc/arm-eabi/6.3.1/../../../../arm-eabi/lib/armv7em/thumb/fpu/fpv4-sp-d16\libc.a(lib_a-mallocr.o)
 .comment       0x00000037       0x38 c:/gnat/2017/bin/../lib/gcc/arm-eabi/6.3.1/../../../../arm-eabi/lib/armv7em/thumb/fpu/fpv4-sp-d16\libc.a(lib_a-mlock.o)
 .comment       0x00000037       0x38 c:/gnat/2017/bin/../lib/gcc/arm-eabi/6.3.1/../../../../arm-eabi/lib/armv7em/thumb/fpu/fpv4-sp-d16\libc.a(lib_a-realloc.o)
 .comment       0x00000037       0x38 c:/gnat/2017/bin/../lib/gcc/arm-eabi/6.3.1/../../../../arm-eabi/lib/armv7em/thumb/fpu/fpv4-sp-d16\libc.a(lib_a-reallocr.o)
 .comment       0x00000037       0x38 c:/gnat/2017/bin/../lib/gcc/arm-eabi/6.3.1/../../../../arm-eabi/lib/armv7em/thumb/fpu/fpv4-sp-d16\libc.a(lib_a-sbrkr.o)
 .comment       0x00000037       0x38 c:/gnat/2017/bin/../lib/gcc/arm-eabi/6.3.1/../../../../arm-eabi/lib/armv7em/thumb/fpu/fpv4-sp-d16\libc.a(lib_a-freer.o)
 .comment       0x00000037       0x38 c:/gnat/2017/bin/../lib/gcc/arm-eabi/6.3.1/../../../../arm-eabi/lib/armv7em/thumb/fpu/fpv4-sp-d16\libc.a(lib_a-impure.o)
 .comment       0x00000037       0x38 c:/gnat/2017/bin/../lib/gcc/arm-eabi/6.3.1/../../../../arm-eabi/lib/armv7em/thumb/fpu/fpv4-sp-d16\libc.a(lib_a-reent.o)
 .comment       0x00000037       0x38 C:\gnat\2017\arm-eabi\lib\gnat\ravenscar-full-stm32f4\adalib\\libgnat.a(newlib-bb.o)
 .comment       0x00000037       0x38 c:/gnat/2017/bin/../lib/gcc/arm-eabi/6.3.1/armv7em/thumb/fpu/fpv4-sp-d16\libgcc.a(unwind-arm.o)
 .comment       0x00000037       0x38 c:/gnat/2017/bin/../lib/gcc/arm-eabi/6.3.1/armv7em/thumb/fpu/fpv4-sp-d16\libgcc.a(pr-support.o)
 .comment       0x00000037       0x38 c:/gnat/2017/bin/../lib/gcc/arm-eabi/6.3.1/../../../../arm-eabi/lib/armv7em/thumb/fpu/fpv4-sp-d16\libc.a(lib_a-errno.o)

.ARM.attributes
                0x00000000       0x37
 .ARM.attributes
                0x00000000       0x37 project_main.o
 .ARM.attributes
                0x00000037       0x37 b__project_main.o
 .ARM.attributes
                0x0000006e       0x37 C:\Users\simon\OneDrive\Documents\STM32\System Project\obj\constants.o
 .ARM.attributes
                0x000000a5       0x37 C:\Users\simon\OneDrive\Documents\STM32\System Project\obj\failure_types.o
 .ARM.attributes
                0x000000dc       0x37 C:\Users\simon\OneDrive\Documents\STM32\System Project\obj\failure_log.o
 .ARM.attributes
                0x00000113       0x37 C:\Users\simon\OneDrive\Documents\STM32\System Project\obj\first_phase.o
 .ARM.attributes
                0x0000014a       0x37 C:\Users\simon\OneDrive\Documents\STM32\System Project\obj\registers.o
 .ARM.attributes
                0x00000181       0x37 C:\Users\simon\OneDrive\Documents\STM32\System Project\obj\signals.o
 .ARM.attributes
                0x000001b8       0x37 C:\Users\simon\OneDrive\Documents\STM32\System Project\obj\signal_register_database.o
 .ARM.attributes
                0x000001ef       0x37 C:\Users\simon\OneDrive\Documents\STM32\System Project\obj\main_system_checks.o
 .ARM.attributes
                0x00000226       0x25 C:\gnat\2017\arm-eabi\lib\gnat\ravenscar-full-stm32f4\adalib\\libgnat.a(start-rom.o)
 .ARM.attributes
                0x0000024b       0x25 C:\gnat\2017\arm-eabi\lib\gnat\ravenscar-full-stm32f4\adalib\\libgnat.a(start-common.o)
 .ARM.attributes
                0x00000270       0x37 C:\gnat\2017\arm-eabi\lib\gnat\ravenscar-full-stm32f4\adalib\\libgnat.a(setup_pll.o)
 .ARM.attributes
                0x000002a7       0x37 C:\gnat\2017\arm-eabi\lib\gnat\ravenscar-full-stm32f4\adalib\\libgnat.a(s-macres.o)
 .ARM.attributes
                0x000002de       0x37 C:\gnat\2017\arm-eabi\lib\gnat\ravenscar-full-stm32f4\adalib\\libgnat.a(s-taskin.o)
 .ARM.attributes
                0x00000315       0x37 C:\gnat\2017\arm-eabi\lib\gnat\ravenscar-full-stm32f4\adalib\\libgnat.a(s-tasdeb.o)
 .ARM.attributes
                0x0000034c       0x37 C:\gnat\2017\arm-eabi\lib\gnat\ravenscar-full-stm32f4\adalib\\libgnat.a(s-taprop.o)
 .ARM.attributes
                0x00000383       0x37 C:\gnat\2017\arm-eabi\lib\gnat\ravenscar-full-stm32f4\adalib\\libgnat.a(s-parame.o)
 .ARM.attributes
                0x000003ba       0x37 C:\gnat\2017\arm-eabi\lib\gnat\ravenscar-full-stm32f4\adalib\\libgnat.a(s-bcprmu.o)
 .ARM.attributes
                0x000003f1       0x37 C:\gnat\2017\arm-eabi\lib\gnat\ravenscar-full-stm32f4\adalib\\libgnat.a(s-bbtiev.o)
 .ARM.attributes
                0x00000428       0x37 C:\gnat\2017\arm-eabi\lib\gnat\ravenscar-full-stm32f4\adalib\\libgnat.a(s-bbthre.o)
 .ARM.attributes
                0x0000045f       0x37 C:\gnat\2017\arm-eabi\lib\gnat\ravenscar-full-stm32f4\adalib\\libgnat.a(s-bbthqu.o)
 .ARM.attributes
                0x00000496       0x37 C:\gnat\2017\arm-eabi\lib\gnat\ravenscar-full-stm32f4\adalib\\libgnat.a(s-bbprot.o)
 .ARM.attributes
                0x000004cd       0x37 C:\gnat\2017\arm-eabi\lib\gnat\ravenscar-full-stm32f4\adalib\\libgnat.a(s-stalib.o)
 .ARM.attributes
                0x00000504       0x37 C:\gnat\2017\arm-eabi\lib\gnat\ravenscar-full-stm32f4\adalib\\libgnat.a(s-soflin.o)
 .ARM.attributes
                0x0000053b       0x37 C:\gnat\2017\arm-eabi\lib\gnat\ravenscar-full-stm32f4\adalib\\libgnat.a(s-init.o)
 .ARM.attributes
                0x00000572       0x37 C:\gnat\2017\arm-eabi\lib\gnat\ravenscar-full-stm32f4\adalib\\libgnat.a(s-exctab.o)
 .ARM.attributes
                0x000005a9       0x37 C:\gnat\2017\arm-eabi\lib\gnat\ravenscar-full-stm32f4\adalib\\libgnat.a(a-tags.o)
 .ARM.attributes
                0x000005e0       0x37 C:\gnat\2017\arm-eabi\lib\gnat\ravenscar-full-stm32f4\adalib\\libgnat.a(a-except.o)
 .ARM.attributes
                0x00000617       0x37 C:\gnat\2017\arm-eabi\lib\gnat\ravenscar-full-stm32f4\adalib\\libgnat.a(a-elchha.o)
 .ARM.attributes
                0x0000064e       0x37 C:\gnat\2017\arm-eabi\lib\gnat\ravenscar-full-stm32f4\adalib\\libgnat.a(s-memset.o)
 .ARM.attributes
                0x00000685       0x37 C:\gnat\2017\arm-eabi\lib\gnat\ravenscar-full-stm32f4\adalib\\libgnat.a(s-memmov.o)
 .ARM.attributes
                0x000006bc       0x37 C:\gnat\2017\arm-eabi\lib\gnat\ravenscar-full-stm32f4\adalib\\libgnat.a(s-memcop.o)
 .ARM.attributes
                0x000006f3       0x37 C:\gnat\2017\arm-eabi\lib\gnat\ravenscar-full-stm32f4\adalib\\libgnat.a(s-memcom.o)
 .ARM.attributes
                0x0000072a       0x37 C:\gnat\2017\arm-eabi\lib\gnat\ravenscar-full-stm32f4\adalib\\libgnat.a(s-secsta.o)
 .ARM.attributes
                0x00000761       0x37 C:\gnat\2017\arm-eabi\lib\gnat\ravenscar-full-stm32f4\adalib\\libgnat.a(s-imgint.o)
 .ARM.attributes
                0x00000798       0x25 C:\gnat\2017\arm-eabi\lib\gnat\ravenscar-full-stm32f4\adalib\\libgnat.a(handler.o)
 .ARM.attributes
                0x000007bd       0x25 C:\gnat\2017\arm-eabi\lib\gnat\ravenscar-full-stm32f4\adalib\\libgnat.a(breakpoint_handler.o)
 .ARM.attributes
                0x000007e2       0x39 C:\gnat\2017\arm-eabi\lib\gnat\ravenscar-full-stm32f4\adalib\\libgnat.a(raise-gcc.o)
 .ARM.attributes
                0x0000081b       0x39 C:\gnat\2017\arm-eabi\lib\gnat\ravenscar-full-stm32f4\adalib\\libgnat.a(adaint-xi.o)
 .ARM.attributes
                0x00000854       0x37 C:\gnat\2017\arm-eabi\lib\gnat\ravenscar-full-stm32f4\adalib\\libgnat.a(s-bbinte.o)
 .ARM.attributes
                0x0000088b       0x37 C:\gnat\2017\arm-eabi\lib\gnat\ravenscar-full-stm32f4\adalib\\libgnat.a(s-bbcppr.o)
 .ARM.attributes
                0x000008c2       0x37 C:\gnat\2017\arm-eabi\lib\gnat\ravenscar-full-stm32f4\adalib\\libgnat.a(s-bbbosu.o)
 .ARM.attributes
                0x000008f9       0x37 C:\gnat\2017\arm-eabi\lib\gnat\ravenscar-full-stm32f4\adalib\\libgnat.a(s-bbmcpa.o)
 .ARM.attributes
                0x00000930       0x37 C:\gnat\2017\arm-eabi\lib\gnat\ravenscar-full-stm32f4\adalib\\libgnat.a(s-bbtime.o)
 .ARM.attributes
                0x00000967       0x37 C:\gnat\2017\arm-eabi\lib\gnat\ravenscar-full-stm32f4\adalib\\libgnat.a(s-traceb.o)
 .ARM.attributes
                0x0000099e       0x37 C:\gnat\2017\arm-eabi\lib\gnat\ravenscar-full-stm32f4\adalib\\libgnat.a(s-excmac.o)
 .ARM.attributes
                0x000009d5       0x37 C:\gnat\2017\arm-eabi\lib\gnat\ravenscar-full-stm32f4\adalib\\libgnat.a(s-wchstw.o)
 .ARM.attributes
                0x00000a0c       0x37 C:\gnat\2017\arm-eabi\lib\gnat\ravenscar-full-stm32f4\adalib\\libgnat.a(s-wchjis.o)
 .ARM.attributes
                0x00000a43       0x37 C:\gnat\2017\arm-eabi\lib\gnat\ravenscar-full-stm32f4\adalib\\libgnat.a(s-wchcon.o)
 .ARM.attributes
                0x00000a7a       0x37 C:\gnat\2017\arm-eabi\lib\gnat\ravenscar-full-stm32f4\adalib\\libgnat.a(s-valuns.o)
 .ARM.attributes
                0x00000ab1       0x37 C:\gnat\2017\arm-eabi\lib\gnat\ravenscar-full-stm32f4\adalib\\libgnat.a(s-traent.o)
 .ARM.attributes
                0x00000ae8       0x37 C:\gnat\2017\arm-eabi\lib\gnat\ravenscar-full-stm32f4\adalib\\libgnat.a(s-memory.o)
 .ARM.attributes
                0x00000b1f       0x37 C:\gnat\2017\arm-eabi\lib\gnat\ravenscar-full-stm32f4\adalib\\libgnat.a(s-io.o)
 .ARM.attributes
                0x00000b56       0x37 C:\gnat\2017\arm-eabi\lib\gnat\ravenscar-full-stm32f4\adalib\\libgnat.a(s-except.o)
 .ARM.attributes
                0x00000b8d       0x37 C:\gnat\2017\arm-eabi\lib\gnat\ravenscar-full-stm32f4\adalib\\libgnat.a(s-excdeb.o)
 .ARM.attributes
                0x00000bc4       0x37 C:\gnat\2017\arm-eabi\lib\gnat\ravenscar-full-stm32f4\adalib\\libgnat.a(g-debuti.o)
 .ARM.attributes
                0x00000bfb       0x37 C:\gnat\2017\arm-eabi\lib\gnat\ravenscar-full-stm32f4\adalib\\libgnat.a(s-textio.o)
 .ARM.attributes
                0x00000c32       0x37 C:\gnat\2017\arm-eabi\lib\gnat\ravenscar-full-stm32f4\adalib\\libgnat.a(s-semiho.o)
 .ARM.attributes
                0x00000c69       0x37 C:\gnat\2017\arm-eabi\lib\gnat\ravenscar-full-stm32f4\adalib\\libgnat.a(s-valuti.o)
 .ARM.attributes
                0x00000ca0       0x37 C:\gnat\2017\arm-eabi\lib\gnat\ravenscar-full-stm32f4\adalib\\libgnat.a(s-casuti.o)
 .ARM.attributes
                0x00000cd7       0x34 c:/gnat/2017/bin/../lib/gcc/arm-eabi/6.3.1/../../../../arm-eabi/lib/armv7em/thumb/fpu/fpv4-sp-d16\libc.a(lib_a-malloc.o)
 .ARM.attributes
                0x00000d0b       0x34 c:/gnat/2017/bin/../lib/gcc/arm-eabi/6.3.1/../../../../arm-eabi/lib/armv7em/thumb/fpu/fpv4-sp-d16\libc.a(lib_a-mallocr.o)
 .ARM.attributes
                0x00000d3f       0x34 c:/gnat/2017/bin/../lib/gcc/arm-eabi/6.3.1/../../../../arm-eabi/lib/armv7em/thumb/fpu/fpv4-sp-d16\libc.a(lib_a-mlock.o)
 .ARM.attributes
                0x00000d73       0x34 c:/gnat/2017/bin/../lib/gcc/arm-eabi/6.3.1/../../../../arm-eabi/lib/armv7em/thumb/fpu/fpv4-sp-d16\libc.a(lib_a-realloc.o)
 .ARM.attributes
                0x00000da7       0x34 c:/gnat/2017/bin/../lib/gcc/arm-eabi/6.3.1/../../../../arm-eabi/lib/armv7em/thumb/fpu/fpv4-sp-d16\libc.a(lib_a-reallocr.o)
 .ARM.attributes
                0x00000ddb       0x34 c:/gnat/2017/bin/../lib/gcc/arm-eabi/6.3.1/../../../../arm-eabi/lib/armv7em/thumb/fpu/fpv4-sp-d16\libc.a(lib_a-sbrkr.o)
 .ARM.attributes
                0x00000e0f       0x34 c:/gnat/2017/bin/../lib/gcc/arm-eabi/6.3.1/../../../../arm-eabi/lib/armv7em/thumb/fpu/fpv4-sp-d16\libc.a(lib_a-freer.o)
 .ARM.attributes
                0x00000e43       0x34 c:/gnat/2017/bin/../lib/gcc/arm-eabi/6.3.1/../../../../arm-eabi/lib/armv7em/thumb/fpu/fpv4-sp-d16\libc.a(lib_a-impure.o)
 .ARM.attributes
                0x00000e77       0x34 c:/gnat/2017/bin/../lib/gcc/arm-eabi/6.3.1/../../../../arm-eabi/lib/armv7em/thumb/fpu/fpv4-sp-d16\libc.a(lib_a-reent.o)
 .ARM.attributes
                0x00000eab       0x39 C:\gnat\2017\arm-eabi\lib\gnat\ravenscar-full-stm32f4\adalib\\libgnat.a(newlib-bb.o)
 .ARM.attributes
                0x00000ee4       0x34 c:/gnat/2017/bin/../lib/gcc/arm-eabi/6.3.1/armv7em/thumb/fpu/fpv4-sp-d16\libgcc.a(unwind-arm.o)
 .ARM.attributes
                0x00000f18       0x22 c:/gnat/2017/bin/../lib/gcc/arm-eabi/6.3.1/armv7em/thumb/fpu/fpv4-sp-d16\libgcc.a(libunwind.o)
 .ARM.attributes
                0x00000f3a       0x34 c:/gnat/2017/bin/../lib/gcc/arm-eabi/6.3.1/armv7em/thumb/fpu/fpv4-sp-d16\libgcc.a(pr-support.o)
 .ARM.attributes
                0x00000f6e       0x34 c:/gnat/2017/bin/../lib/gcc/arm-eabi/6.3.1/../../../../arm-eabi/lib/armv7em/thumb/fpu/fpv4-sp-d16\libc.a(lib_a-errno.o)

.gnu.attributes
 *(.gnu.attributes)

/DISCARD/
 *(.note.GNU-stack)
 *(.gnu_debuglink)
 *(.gnu.lto_*)
OUTPUT(project_main elf32-littlearm)
